(dp1
S'temp_list'
p2
(lp3
F22.423459667096775
aF17.249400041994136
aF22.423459667096775
aF22.423459667096775
aF22.423459667096775
aF22.423459667096775
aF22.423459667096775
aF22.423459667096775
aF22.423459667096775
aF22.423459667096775
aF22.423459667096775
aF22.423459667096775
aF22.423459667096775
aF22.423459667096775
aF22.423459667096775
aF22.423459667096775
aF22.423459667096775
aF22.423459667096775
aF22.423459667096775
aF22.423459667096775
aF22.423459667096775
aF22.423459667096775
aF22.423459667096775
aF22.423459667096775
aF22.423459667096775
aF22.423459667096775
aF22.423459667096775
aF22.423459667096775
aF22.423459667096775
aF22.423459667096775
aF22.423459667096775
aF22.423459667096775
aF22.423459667096775
aF22.423459667096775
aF22.423459667096775
aF22.423459667096775
aF22.423459667096775
aF22.423459667096775
aF22.423459667096775
aF22.423459667096775
aF22.423459667096775
aF22.423459667096775
aF22.423459667096775
aF22.423459667096775
aF22.423459667096775
aF22.423459667096775
aF22.423459667096775
aF22.423459667096775
aF22.423459667096775
aF22.423459667096775
aF22.423459667096775
aF22.423459667096775
aF22.423459667096775
aF22.423459667096775
aF22.423459667096775
aF22.423459667096775
aF22.423459667096775
aF22.423459667096775
aF22.423459667096775
aF22.423459667096775
aF22.423459667096775
aF22.423459667096775
aF22.423459667096775
aF22.423459667096775
aF22.423459667096775
aF22.423459667096775
aF22.423459667096775
aF22.423459667096775
aF22.423459667096775
aF22.423459667096775
aF22.423459667096775
aF22.423459667096775
aF22.423459667096775
aF22.423459667096775
aF22.423459667096775
aF22.423459667096775
aF22.423459667096775
aF22.423459667096775
aF22.423459667096775
aF22.423459667096775
aF22.423459667096775
aF22.423459667096775
aF22.423459667096775
aF22.423459667096775
aF22.423459667096775
aF22.423459667096775
aF22.423459667096775
aF22.423459667096775
aF22.423459667096775
aF22.423459667096775
aF22.423459667096775
aF22.423459667096775
aF22.423459667096775
aF22.423459667096775
aF22.423459667096775
aF22.423459667096775
aF22.423459667096775
aF22.423459667096775
aF22.423459667096775
aF22.423459667096775
aF22.423459667096775
aF24.39453000046921
aF24.39453000046921
aF20.206005542052786
aF19.959621750381235
aF23.408994833782995
aF24.39453000046921
aF20.206005542052786
aF19.959621750381235
aF22.423459667096775
aF24.39453000046921
aF21.191540708739009
aF20.206005542052786
aF22.423459667096775
aF24.39453000046921
aF23.408994833782995
aF20.206005542052786
aF22.423459667096775
aF26.611984125513199
aF26.11921654217009
aF24.39453000046921
aF24.39453000046921
aF28.336670667214079
aF30.30774100058651
aF29.075822042228747
aF28.336670667214079
aF32.032427542287387
aF35.974568209032263
aF34.003497875659825
aF32.032427542287387
aF35.728184417360708
aF39.916708875777125
aF41.887779209149564
aF39.177557500762468
aF39.916708875777125
aF44.105233334193549
aF48.047374000938419
aF48.047374000938419
aF47.061838834252207
aF51.743130876011726
aF54.946120167741938
aF55.931655334428157
aF53.960585001055719
aF54.946120167741938
aF60.120179792844581
aF62.830401501231677
aF61.844866334545458
aF61.844866334545458
aF63.569552876246341
aF65.540623209618758
aF68.004461126334306
aF69.72914766803521
aF71.453834209736073
aF72.439369376422292
aF73.424904543108511
aF75.642358668152497
aF77.613429001524935
aF79.091731751554249
aF79.338115543225797
aF81.309185876598249
aF83.033872418299126
aF84.265791376656892
aF86.483245501700878
aF87.468780668387097
aF87.715164460058659
aF89.193467210087974
aF91.410921335131974
aF93.381991668504412
aF95.353062001876836
aF95.353062001876836
aF96.092213376891507
aF97.077748543577727
aF99.048818876950151
aF99.541586460293246
aF102.25180816868036
aF102.99095954369503
aF102.99095954369503
aF104.96202987706745
aF104.96202987706745
aF107.17948400211144
aF107.42586779378298
aF109.15055433548387
aF111.12162466885631
aF111.36800846052786
aF112.84631121055719
aF112.84631121055719
aF114.81738154392963
aF115.80291671061585
aF117.03483566897361
aF118.02037083565983
aF119.00590600234604
aF119.25228979401761
aF120.48420875237538
aF120.73059254404693
aF120.73059254404693
aF122.94804666909091
aF123.19443046076246
aF124.91911700246335
aF125.90465216914956
aF126.39741975249268
aF126.89018733583578
aF127.62933871085045
aF128.61487387753667
aF129.84679283589441
aF130.3395604192375
aF130.58594421090908
aF132.80339833595306
aF132.80339833595306
aF133.78893350263928
aF134.28170108598238
aF134.52808487765392
aF135.51362004434014
aF136.49915521102639
aF136.49915521102639
aF138.71660933607041
aF138.71660933607041
aF138.96299312774195
aF140.68767966944282
aF140.68767966944282
aF141.67321483612903
aF142.16598241947213
aF142.41236621114368
aF142.41236621114368
aF143.3979013778299
aF144.38343654451612
aF144.38343654451612
aF145.61535550287388
aF146.10812308621701
aF146.35450687788855
aF146.35450687788855
aF148.57196100293254
aF148.57196100293254
aF148.57196100293254
aF149.55749616961876
aF149.55749616961876
aF150.54303133630498
aF150.54303133630498
aF150.78941512797653
aF151.28218271131965
aF152.26771787800587
aF153.49963683636363
aF153.49963683636363
aF154.48517200304985
aF154.48517200304985
aF154.7315557947214
aF155.2243233780645
aF156.45624233642226
aF156.45624233642226
aF156.45624233642226
aF157.44177750310848
aF158.18092887812315
aF158.18092887812315
aF158.18092887812315
aF159.16646404480935
aF160.15199921149556
aF160.15199921149556
aF161.38391816985339
aF161.87668575319648
aF162.12306954486803
aF162.61583712821115
aF164.34052366991205
aF164.34052366991205
aF164.34052366991205
aF164.34052366991205
aF165.32605883659824
aF165.81882641994136
aF166.06521021161291
aF166.06521021161291
aF167.05074537829913
aF167.05074537829913
aF167.78989675331377
aF168.03628054498532
aF168.03628054498532
aF169.26819950334308
aF170.2537346700293
aF170.2537346700293
aF170.2537346700293
aF170.50011846170088
aF172.22480500340174
aF172.22480500340174
aF173.21034017008796
aF174.19587533677418
aF174.19587533677418
aF174.19587533677418
aF174.19587533677418
aF174.19587533677418
aF174.19587533677418
aF174.19587533677418
aF174.44225912844573
aF175.67417808680352
aF175.92056187847507
aF175.92056187847507
aF175.92056187847507
aF177.15248083683284
aF177.64524842017593
aF177.89163221184751
aF177.89163221184751
aF177.89163221184751
aF178.3843997951906
aF177.89163221184751
aF178.3843997951906
aF180.10908633689149
aF180.10908633689149
aF180.10908633689149
aF181.09462150357771
aF181.09462150357771
aF181.09462150357771
aF182.08015667026393
aF182.08015667026393
aF182.08015667026393
aF182.08015667026393
aF182.32654046193548
aF182.81930804527858
aF182.81930804527858
aF183.55845942029325
aF183.80484321196479
aF183.80484321196479
aF183.80484321196479
aF185.03676217032256
aF185.03676217032256
aF186.02229733700881
aF186.02229733700881
aF186.02229733700881
aF186.02229733700881
aF186.02229733700881
aF187.99336767038125
aF189.96443800375366
aF189.96443800375366
aF189.96443800375366
aF189.96443800375366
aF189.96443800375366
aF189.96443800375366
aF189.96443800375366
aF189.96443800375366
aF189.96443800375366
aF189.96443800375366
aF189.96443800375366
aF189.96443800375366
aF190.21082179542523
aF190.70358937876833
aF190.70358937876833
aF191.68912454545455
aF191.68912454545455
aF191.68912454545455
aF191.68912454545455
aF191.68912454545455
aF192.92104350381231
aF193.66019487882699
aF193.66019487882699
aF193.66019487882699
aF193.66019487882699
aF193.66019487882699
aF193.66019487882699
aF193.66019487882699
aF194.15296246217008
aF194.6457300455132
aF195.87764900387094
aF195.87764900387094
aF195.87764900387094
aF195.87764900387094
aF195.87764900387094
aF195.87764900387094
aF195.87764900387094
aF196.86318417055716
aF197.35595175390029
aF197.60233554557183
aF197.60233554557183
aF197.60233554557183
aF198.58787071225802
aF198.58787071225802
aF199.57340587894427
aF199.32702208727272
aF199.57340587894427
aF199.57340587894427
aF199.57340587894427
aF199.57340587894427
aF200.80532483730207
aF199.57340587894427
aF200.80532483730207
aF201.79086000398826
aF201.79086000398826
aF201.79086000398826
aF201.79086000398826
aF202.0372437956598
aF203.7619303373607
aF203.7619303373607
aF203.7619303373607
aF203.7619303373607
aF203.7619303373607
aF204.74746550404689
aF204.74746550404689
aF204.74746550404689
aF204.74746550404689
aF204.74746550404689
aF204.74746550404689
aF204.74746550404689
aF204.74746550404689
aF204.74746550404689
aF204.74746550404689
aF204.74746550404689
aF205.24023308739004
aF205.24023308739004
aF205.24023308739004
aF205.24023308739004
aF205.24023308739004
aF205.48661687906159
aF205.48661687906159
aF205.48661687906159
aF205.48661687906159
aF205.24023308739004
aF205.24023308739004
aF205.48661687906159
aF205.48661687906159
aF205.48661687906159
aF205.48661687906159
aF205.48661687906159
aF206.47215204574778
aF207.21130342076248
aF206.47215204574778
aF207.45768721243402
aF207.45768721243402
aF207.45768721243402
aF207.45768721243402
aF207.45768721243402
aF208.68960617079176
aF208.68960617079176
aF208.68960617079176
aF209.18237375413489
aF209.42875754580643
aF208.68960617079176
aF208.68960617079176
aF208.68960617079176
aF209.42875754580643
aF209.42875754580643
aF209.42875754580643
aF209.42875754580643
aF209.42875754580643
aF209.92152512914953
aF209.92152512914953
aF209.42875754580643
aF209.92152512914953
aF209.42875754580643
aF209.92152512914953
aF209.92152512914953
aF210.41429271249265
aF211.64621167085042
aF211.64621167085042
aF211.64621167085042
aF211.64621167085042
aF209.92152512914953
aF209.92152512914953
aF211.64621167085042
aF211.64621167085042
aF211.64621167085042
aF211.64621167085042
aF211.64621167085042
aF211.64621167085042
aF212.63174683753661
aF212.63174683753661
aF212.63174683753661
aF212.63174683753661
aF213.61728200422286
aF213.61728200422286
aF213.61728200422286
aF213.61728200422286
aF213.61728200422286
aF213.61728200422286
aF213.61728200422286
aF213.61728200422286
aF213.86366579589441
aF213.61728200422286
aF213.61728200422286
aF213.61728200422286
aF213.61728200422286
aF214.3564333792375
aF213.86366579589441
aF214.3564333792375
aF214.3564333792375
aF214.3564333792375
aF213.86366579589441
aF214.3564333792375
aF215.34196854592375
aF214.3564333792375
aF215.0955847542522
aF215.34196854592375
aF215.34196854592375
aF215.34196854592375
aF215.34196854592375
aF215.34196854592375
aF215.34196854592375
aF215.34196854592375
aF215.34196854592375
aF215.34196854592375
aF215.34196854592375
aF216.57388750428149
aF216.57388750428149
aF216.57388750428149
aF217.06665508762458
aF217.55942267096773
aF217.55942267096773
aF217.55942267096773
aF217.55942267096773
aF219.53049300434017
aF219.53049300434017
aF219.53049300434017
aF219.53049300434017
aF217.80580646263928
aF217.80580646263928
aF217.80580646263928
aF217.80580646263928
aF217.55942267096773
aF217.80580646263928
aF219.53049300434017
aF219.53049300434017
aF219.53049300434017
aF219.53049300434017
aF219.53049300434017
aF219.53049300434017
aF219.53049300434017
aF221.50156333771261
aF219.53049300434017
aF219.53049300434017
aF219.53049300434017
aF219.53049300434017
aF221.50156333771261
aF219.53049300434017
aF219.53049300434017
aF219.53049300434017
aF219.53049300434017
aF219.53049300434017
aF221.50156333771261
aF219.53049300434017
aF221.50156333771261
aF221.50156333771261
aF221.50156333771261
aF221.50156333771261
aF221.50156333771261
aF220.51602817102636
aF221.50156333771261
aF221.50156333771261
aF221.50156333771261
aF221.50156333771261
aF221.50156333771261
aF220.51602817102636
aF221.50156333771261
aF221.50156333771261
aF221.50156333771261
aF221.50156333771261
aF221.50156333771261
aF221.50156333771261
aF221.50156333771261
aF221.50156333771261
aF221.50156333771261
aF221.50156333771261
aF221.50156333771261
aF221.50156333771261
aF221.50156333771261
aF221.50156333771261
aF221.50156333771261
aF221.50156333771261
aF221.50156333771261
aF221.50156333771261
aF221.50156333771261
aF221.50156333771261
aF221.74794712938416
aF221.74794712938416
aF221.50156333771261
aF221.74794712938416
aF222.24071471272725
aF222.24071471272725
aF221.50156333771261
aF221.74794712938416
aF222.24071471272725
aF221.74794712938416
aF222.24071471272725
aF222.24071471272725
aF222.24071471272725
aF222.97986608774193
aF223.22624987941347
aF222.24071471272725
aF222.97986608774193
aF223.22624987941347
aF223.22624987941347
aF223.22624987941347
aF223.22624987941347
aF223.22624987941347
aF223.22624987941347
aF223.71901746275663
aF224.45816883777127
aF224.45816883777127
aF224.45816883777127
aF224.95093642111436
aF225.19732021278591
aF224.95093642111436
aF225.19732021278591
aF225.19732021278591
aF224.95093642111436
aF224.95093642111436
aF224.45816883777127
aF224.45816883777127
aF224.45816883777127
aF224.95093642111436
aF224.45816883777127
aF224.45816883777127
aF224.45816883777127
aF224.45816883777127
aF225.19732021278591
aF225.19732021278591
aF224.45816883777127
aF223.22624987941347
aF224.45816883777127
aF223.22624987941347
aF224.45816883777127
aF224.95093642111436
aF225.19732021278591
aF225.19732021278591
aF225.19732021278591
aF224.95093642111436
aF225.19732021278591
aF225.19732021278591
aF225.19732021278591
aF224.95093642111436
aF225.19732021278591
aF225.19732021278591
aF225.19732021278591
aF224.95093642111436
aF224.95093642111436
aF224.95093642111436
aF224.95093642111436
aF225.19732021278591
aF225.19732021278591
aF225.19732021278591
aF224.45816883777127
aF224.95093642111436
aF225.19732021278591
aF225.19732021278591
aF225.19732021278591
aF224.95093642111436
aF224.95093642111436
aF224.95093642111436
aF224.95093642111436
aF225.19732021278591
aF225.19732021278591
aF225.19732021278591
aF225.19732021278591
aF225.19732021278591
aF225.19732021278591
aF225.19732021278591
aF225.19732021278591
aF225.19732021278591
aF225.19732021278591
aF224.95093642111436
aF225.19732021278591
aF225.19732021278591
aF225.19732021278591
aF224.95093642111436
aF224.95093642111436
aF224.45816883777127
aF224.95093642111436
aF225.19732021278591
aF224.95093642111436
aF224.45816883777127
aF224.95093642111436
aF224.95093642111436
aF225.19732021278591
aF225.19732021278591
aF225.19732021278591
aF225.69008779612906
aF225.44370400445752
aF225.69008779612906
aF225.69008779612906
aF225.19732021278591
aF225.19732021278591
aF225.44370400445752
aF225.19732021278591
aF225.69008779612906
aF225.19732021278591
aF227.41477433782995
aF227.41477433782995
aF227.41477433782995
aF227.41477433782995
aF227.41477433782995
aF227.41477433782995
aF227.41477433782995
aF227.41477433782995
aF227.41477433782995
aF228.40030950451614
aF227.41477433782995
aF227.41477433782995
aF228.40030950451614
aF227.41477433782995
aF227.41477433782995
aF228.40030950451614
aF227.41477433782995
aF227.41477433782995
aF227.41477433782995
aF227.41477433782995
aF227.41477433782995
aF227.41477433782995
aF227.41477433782995
aF227.41477433782995
aF227.41477433782995
aF227.41477433782995
aF227.41477433782995
aF227.41477433782995
aF227.41477433782995
aF227.41477433782995
aF227.41477433782995
aF227.41477433782995
aF227.41477433782995
aF227.41477433782995
aF227.41477433782995
aF227.41477433782995
aF227.41477433782995
aF227.41477433782995
aF227.41477433782995
aF227.41477433782995
aF227.41477433782995
aF227.41477433782995
aF227.41477433782995
aF227.41477433782995
aF227.41477433782995
aF227.41477433782995
aF225.69008779612906
aF227.41477433782995
aF227.41477433782995
aF227.41477433782995
aF227.41477433782995
aF227.41477433782995
aF227.41477433782995
aF227.41477433782995
aF227.41477433782995
aF227.41477433782995
aF227.41477433782995
aF227.41477433782995
aF227.41477433782995
aF227.41477433782995
aF227.41477433782995
aF227.41477433782995
aF227.41477433782995
aF227.41477433782995
aF227.41477433782995
aF227.41477433782995
aF227.41477433782995
aF228.40030950451614
aF228.40030950451614
aF228.40030950451614
aF228.40030950451614
aF228.40030950451614
aF228.40030950451614
aF228.40030950451614
aF228.40030950451614
aF228.89307708785924
aF228.89307708785924
aF228.40030950451614
aF228.40030950451614
aF228.89307708785924
aF228.89307708785924
aF228.89307708785924
aF228.89307708785924
aF228.89307708785924
aF228.89307708785924
aF229.13946087953079
aF229.13946087953079
aF229.63222846287394
aF230.12499604621703
aF229.63222846287394
aF229.13946087953079
aF229.63222846287394
aF229.63222846287394
aF229.13946087953079
aF228.89307708785924
aF229.13946087953079
aF229.13946087953079
aF229.13946087953079
aF229.13946087953079
aF229.13946087953079
aF228.89307708785924
aF229.13946087953079
aF229.13946087953079
aF229.63222846287394
aF229.13946087953079
aF229.13946087953079
aF229.13946087953079
aF229.13946087953079
aF229.13946087953079
aF229.13946087953079
aF229.63222846287394
aF229.13946087953079
aF229.13946087953079
aF229.13946087953079
aF229.13946087953079
aF229.13946087953079
aF228.89307708785924
aF228.89307708785924
aF228.40030950451614
aF227.41477433782995
aF227.41477433782995
aF227.41477433782995
aF227.41477433782995
aF228.40030950451614
aF228.40030950451614
aF228.40030950451614
aF228.40030950451614
aF228.40030950451614
aF228.89307708785924
aF228.40030950451614
aF228.89307708785924
aF228.40030950451614
aF228.40030950451614
aF227.41477433782995
aF228.40030950451614
aF227.41477433782995
aF227.41477433782995
aF227.41477433782995
aF227.41477433782995
aF227.41477433782995
aF227.41477433782995
aF227.41477433782995
aF228.40030950451614
aF228.40030950451614
aF227.41477433782995
aF228.40030950451614
aF228.40030950451614
aF227.41477433782995
aF227.41477433782995
aF227.41477433782995
aF227.41477433782995
aF227.41477433782995
aF227.41477433782995
aF227.41477433782995
aF227.41477433782995
aF227.41477433782995
aF227.41477433782995
aF228.40030950451614
aF228.40030950451614
aF228.40030950451614
aF228.40030950451614
aF228.40030950451614
aF228.40030950451614
aF228.89307708785924
aF228.40030950451614
aF227.41477433782995
aF227.41477433782995
aF228.40030950451614
aF227.41477433782995
aF227.41477433782995
aF228.40030950451614
aF228.40030950451614
aF228.40030950451614
aF228.40030950451614
aF228.40030950451614
aF228.40030950451614
aF228.40030950451614
aF228.40030950451614
aF228.40030950451614
aF227.41477433782995
aF227.41477433782995
aF227.41477433782995
aF227.41477433782995
aF227.41477433782995
aF227.41477433782995
aF228.40030950451614
aF228.40030950451614
aF227.41477433782995
aF227.41477433782995
aF227.41477433782995
aF227.41477433782995
aF228.40030950451614
aF228.40030950451614
aF228.89307708785924
aF229.13946087953079
aF229.13946087953079
aF229.13946087953079
aF229.63222846287394
aF229.63222846287394
aF229.63222846287394
aF229.13946087953079
aF229.13946087953079
aF229.13946087953079
aF229.13946087953079
aF229.13946087953079
aF228.40030950451614
aF228.40030950451614
aF228.89307708785924
aF228.89307708785924
aF229.13946087953079
aF229.13946087953079
aF228.40030950451614
aF228.40030950451614
aF228.40030950451614
aF228.40030950451614
aF227.41477433782995
aF228.40030950451614
aF228.40030950451614
aF228.40030950451614
aF228.40030950451614
aF228.40030950451614
aF228.89307708785924
aF228.89307708785924
aF229.13946087953079
aF228.40030950451614
aF228.89307708785924
aF229.13946087953079
aF228.89307708785924
aF228.89307708785924
aF228.89307708785924
aF229.13946087953079
aF229.13946087953079
aF229.13946087953079
aF229.13946087953079
aF229.13946087953079
aF228.89307708785924
aF228.89307708785924
aF229.13946087953079
aF228.89307708785924
aF229.13946087953079
aF228.89307708785924
aF228.89307708785924
aF228.89307708785924
aF228.89307708785924
aF228.40030950451614
aF228.40030950451614
aF228.40030950451614
aF228.40030950451614
aF228.40030950451614
aF227.41477433782995
aF227.41477433782995
aF227.41477433782995
aF228.40030950451614
aF227.41477433782995
aF228.40030950451614
aF228.40030950451614
aF228.40030950451614
aF228.40030950451614
aF228.89307708785924
aF229.13946087953079
aF229.13946087953079
aF229.13946087953079
aF228.89307708785924
aF229.13946087953079
aF229.13946087953079
aF228.89307708785924
aF229.13946087953079
aF229.13946087953079
aF229.13946087953079
aF228.40030950451614
aF228.40030950451614
aF227.41477433782995
aF228.40030950451614
aF228.40030950451614
aF228.40030950451614
aF228.40030950451614
aF228.89307708785924
aF229.13946087953079
aF228.40030950451614
aF228.40030950451614
aF228.40030950451614
aF228.40030950451614
aF228.40030950451614
aF228.40030950451614
aF229.13946087953079
aF228.89307708785924
aF228.40030950451614
aF228.40030950451614
aF228.40030950451614
aF228.40030950451614
aF228.89307708785924
aF228.89307708785924
aF228.89307708785924
aF228.40030950451614
aF229.13946087953079
aF228.89307708785924
aF228.89307708785924
aF228.89307708785924
aF229.13946087953079
aF229.13946087953079
aF228.89307708785924
aF229.13946087953079
aF229.13946087953079
aF229.13946087953079
aF229.13946087953079
aF229.13946087953079
aF229.13946087953079
aF229.13946087953079
aF229.13946087953079
aF228.89307708785924
aF229.13946087953079
aF229.13946087953079
aF229.63222846287394
aF229.13946087953079
aF229.13946087953079
aF229.13946087953079
aF229.13946087953079
aF229.13946087953079
aF229.13946087953079
aF229.13946087953079
aF229.13946087953079
aF229.13946087953079
aF229.13946087953079
aF229.13946087953079
aF229.13946087953079
aF229.13946087953079
aF229.13946087953079
aF229.13946087953079
aF230.12499604621703
aF229.63222846287394
aF229.13946087953079
aF229.13946087953079
aF229.13946087953079
aF229.13946087953079
aF229.63222846287394
aF230.12499604621703
aF230.12499604621703
aF229.63222846287394
aF229.13946087953079
aF229.63222846287394
aF229.63222846287394
aF229.13946087953079
aF230.12499604621703
aF230.12499604621703
aF230.12499604621703
aF230.12499604621703
aF229.13946087953079
aF228.89307708785924
aF229.13946087953079
aF229.63222846287394
aF229.63222846287394
aF230.12499604621703
aF230.12499604621703
aF230.12499604621703
aF230.12499604621703
aF231.11053121290323
aF230.86414742123168
aF230.12499604621703
aF230.12499604621703
aF230.12499604621703
aF230.12499604621703
aF230.12499604621703
aF230.12499604621703
aF229.13946087953079
aF229.63222846287394
aF229.13946087953079
aF229.13946087953079
aF229.13946087953079
aF228.89307708785924
aF228.89307708785924
aF228.89307708785924
aF228.40030950451614
aF228.89307708785924
aF229.13946087953079
aF229.13946087953079
aF229.13946087953079
aF229.13946087953079
aF229.13946087953079
aF229.13946087953079
aF229.13946087953079
aF229.13946087953079
aF229.13946087953079
aF229.13946087953079
aF229.13946087953079
aF229.13946087953079
aF229.13946087953079
aF229.13946087953079
aF229.13946087953079
aF229.13946087953079
aF229.13946087953079
aF229.63222846287394
aF230.12499604621703
aF229.63222846287394
aF229.13946087953079
aF230.12499604621703
aF230.12499604621703
aF231.11053121290323
aF231.11053121290323
aF231.11053121290323
aF230.12499604621703
aF229.63222846287394
aF230.12499604621703
aF230.12499604621703
aF230.12499604621703
aF229.63222846287394
aF229.63222846287394
aF230.12499604621703
aF230.12499604621703
aF229.63222846287394
aF229.13946087953079
aF230.12499604621703
aF230.12499604621703
aF230.12499604621703
aF229.63222846287394
aF229.63222846287394
aF229.13946087953079
aF229.13946087953079
aF229.13946087953079
aF229.13946087953079
aF229.13946087953079
aF229.13946087953079
aF229.13946087953079
aF229.13946087953079
aF229.13946087953079
aF229.13946087953079
aF229.13946087953079
aF229.13946087953079
aF229.13946087953079
aF229.13946087953079
aF229.13946087953079
aF229.13946087953079
aF229.13946087953079
aF229.13946087953079
aF229.13946087953079
aF229.13946087953079
aF229.63222846287394
aF229.13946087953079
aF229.13946087953079
aF228.40030950451614
aF227.41477433782995
aF227.41477433782995
aF225.69008779612906
aF225.19732021278591
aF224.45816883777127
aF223.22624987941347
aF221.50156333771261
aF221.50156333771261
aF219.53049300434017
aF219.53049300434017
aF217.55942267096773
aF216.57388750428149
aF215.34196854592375
aF214.3564333792375
aF213.61728200422286
aF212.63174683753661
aF211.64621167085042
aF209.42875754580643
aF207.45768721243402
aF207.45768721243402
aF205.48661687906159
aF205.24023308739004
aF203.7619303373607
aF203.7619303373607
aF201.79086000398826
aF200.80532483730207
aF199.57340587894427
aF198.58787071225802
aF197.60233554557183
aF196.86318417055716
aF195.87764900387094
aF193.66019487882699
aF193.41381108715544
aF191.68912454545455
aF190.70358937876833
aF189.96443800375366
aF189.96443800375366
aF189.96443800375366
aF187.99336767038125
aF186.26868112868036
aF186.02229733700881
aF183.80484321196479
aF182.81930804527858
aF182.08015667026393
aF182.08015667026393
aF180.10908633689149
aF180.10908633689149
aF178.3843997951906
aF177.89163221184751
aF177.15248083683284
aF175.92056187847507
aF174.44225912844573
aF174.19587533677418
aF174.19587533677418
aF172.22480500340174
aF172.22480500340174
aF172.22480500340174
aF170.2537346700293
aF170.2537346700293
aF168.03628054498532
aF168.03628054498532
aF167.05074537829913
aF166.06521021161291
aF165.81882641994136
aF165.32605883659824
aF164.34052366991205
aF164.34052366991205
aF162.12306954486803
aF161.38391816985339
aF160.15199921149556
aF160.15199921149556
aF158.18092887812315
aF158.18092887812315
aF158.18092887812315
aF157.93454508645158
aF157.44177750310848
aF156.45624233642226
aF156.45624233642226
aF154.7315557947214
aF154.48517200304985
aF154.48517200304985
aF153.49963683636363
aF152.26771787800587
aF152.26771787800587
aF150.78941512797653
aF150.78941512797653
aF150.54303133630498
aF150.54303133630498
aF149.55749616961876
aF149.55749616961876
aF148.57196100293254
aF148.57196100293254
aF148.57196100293254
aF146.35450687788855
aF146.35450687788855
aF145.61535550287388
aF144.38343654451612
aF142.41236621114368
aF142.41236621114368
aF142.41236621114368
aF142.16598241947213
aF142.16598241947213
aF141.67321483612903
aF140.68767966944282
aF140.68767966944282
aF138.96299312774195
aF138.71660933607041
aF138.71660933607041
aF137.73107416938419
aF136.49915521102639
aF136.49915521102639
aF136.49915521102639
aF135.51362004434014
aF134.52808487765392
aF134.52808487765392
aF134.28170108598238
aF133.78893350263928
aF133.78893350263928
aF132.80339833595306
aF132.80339833595306
aF132.80339833595306
aF130.58594421090908
aF130.58594421090908
aF130.3395604192375
aF130.58594421090908
aF129.84679283589441
aF128.61487387753667
aF128.61487387753667
aF128.61487387753667
aF127.62933871085045
aF126.89018733583578
aF126.64380354416423
aF126.39741975249268
aF125.90465216914956
aF125.90465216914956
aF124.91911700246335
aF124.91911700246335
aF124.91911700246335
aF124.91911700246335
aF124.91911700246335
aF123.19443046076246
aF122.94804666909091
aF122.94804666909091
aF121.96251150240469
aF120.73059254404693
aF120.73059254404693
aF120.48420875237538
aF119.74505737736071
aF119.25228979401761
aF119.00590600234604
aF119.00590600234604
aF119.00590600234604
aF119.00590600234604
aF119.00590600234604
aF118.02037083565983
aF118.02037083565983
aF118.02037083565983
aF118.02037083565983
aF117.03483566897361
aF117.03483566897361
aF115.80291671061585
aF114.81738154392963
aF114.81738154392963
aF114.81738154392963
aF114.57099775225808
aF114.07823016891498
aF112.84631121055719
aF112.84631121055719
aF112.84631121055719
aF112.59992741888564
aF111.86077604387097
aF111.12162466885631
aF111.36800846052786
aF111.12162466885631
aF111.12162466885631
aF111.12162466885631
aF111.12162466885631
aF111.12162466885631
aF111.12162466885631
aF109.15055433548387
aF109.15055433548387
aF109.15055433548387
aF109.15055433548387
aF109.15055433548387
aF107.42586779378298
aF107.42586779378298
aF107.17948400211144
aF107.17948400211144
aF107.17948400211144
aF107.17948400211144
aF107.17948400211144
aF106.19394883542522
aF104.96202987706745
aF104.96202987706745
aF104.96202987706745
aF104.96202987706745
aF104.96202987706745
aF103.97649471038125
aF103.97649471038125
aF103.48372712703812
aF103.48372712703812
aF102.99095954369503
aF102.99095954369503
aF102.99095954369503
aF102.99095954369503
aF102.74457575202345
aF102.25180816868036
aF102.25180816868036
aF101.26627300199414
aF101.26627300199414
aF101.26627300199414
aF101.26627300199414
aF101.26627300199414
aF101.26627300199414
aF99.541586460293246
aF99.541586460293246
aF99.048818876950151
aF99.048818876950151
aF99.048818876950151
aF99.048818876950151
aF98.802435085278589
aF98.309667501935479
aF98.309667501935479
aF97.077748543577727
aF97.077748543577727
aF97.077748543577727
aF97.077748543577727
aF97.077748543577727
aF96.831364751906165
aF96.092213376891507
aF95.599445793548398
aF95.353062001876836
aF95.353062001876836
aF95.353062001876836
aF95.353062001876836
aF95.353062001876836
aF95.353062001876836
aF95.353062001876836
aF93.381991668504412
aF95.353062001876836
aF93.381991668504412
aF93.381991668504412
aF93.381991668504412
aF93.381991668504412
aF93.381991668504412
aF92.150072710146631
aF91.657305126803521
aF91.410921335131974
aF91.410921335131974
aF91.410921335131974
aF91.410921335131974
aF91.410921335131974
aF90.425386168445755
aF89.193467210087974
aF89.193467210087974
aF89.193467210087974
aF89.193467210087974
aF89.193467210087974
aF88.207932043401769
aF88.207932043401769
aF88.207932043401769
aF87.715164460058659
aF87.468780668387097
aF87.468780668387097
aF87.468780668387097
aF87.468780668387097
aF87.468780668387097
aF87.468780668387097
aF87.468780668387097
aF86.483245501700878
aF86.483245501700878
aF86.483245501700878
aF86.483245501700878
aF86.483245501700878
aF86.483245501700878
aF85.497710335014659
aF85.497710335014659
aF85.497710335014659
aF84.265791376656892
aF84.265791376656892
aF83.773023793313797
aF83.280256209970688
aF83.280256209970688
aF83.280256209970688
aF83.033872418299126
aF83.033872418299126
aF83.033872418299126
aF83.033872418299126
aF82.54110483495603
aF82.54110483495603
aF81.309185876598249
aF81.309185876598249
aF81.309185876598249
aF81.309185876598249
aF81.062802084926702
aF80.323650709912016
aF80.323650709912016
aF80.323650709912016
aF79.338115543225797
aF79.338115543225797
aF79.338115543225797
aF79.338115543225797
aF79.338115543225797
aF79.338115543225797
aF79.338115543225797
aF79.338115543225797
aF79.091731751554249
aF78.59896416821114
aF78.59896416821114
aF78.59896416821114
aF77.613429001524935
aF77.613429001524935
aF77.613429001524935
aF77.613429001524935
aF76.381510043167168
aF75.888742459824059
aF75.888742459824059
aF75.642358668152497
aF75.888742459824059
aF75.642358668152497
aF75.642358668152497
aF75.642358668152497
aF75.642358668152497
aF75.642358668152497
aF75.642358668152497
aF75.642358668152497
aF74.656823501466278
aF75.149591084809387
aF74.656823501466278
aF73.424904543108511
aF74.656823501466278
aF73.424904543108511
aF73.424904543108511
aF73.424904543108511
aF73.424904543108511
aF73.424904543108511
aF73.178520751436949
aF72.439369376422292
aF72.439369376422292
aF72.439369376422292
aF72.439369376422292
aF72.439369376422292
aF71.946601793079182
aF71.453834209736073
aF71.453834209736073
aF71.453834209736073
aF71.453834209736073
aF71.453834209736073
aF71.207450418064525
aF70.714682834721415
aF70.714682834721415
aF70.714682834721415
aF70.714682834721415
aF70.714682834721415
aF69.72914766803521
aF69.72914766803521
aF69.72914766803521
aF69.72914766803521
aF69.72914766803521
aF69.72914766803521
aF68.497228709677429
aF68.497228709677429
aF68.004461126334306
aF68.004461126334306
aF67.511693542991196
aF67.511693542991196
aF67.511693542991196
aF67.511693542991196
aF67.511693542991196
aF67.265309751319649
aF67.265309751319649
aF67.265309751319649
aF66.772542167976539
aF66.772542167976539
aF66.772542167976539
aF65.540623209618758
aF65.540623209618758
aF65.540623209618758
aF65.540623209618758
aF65.540623209618758
aF65.540623209618758
aF65.540623209618758
aF65.540623209618758
aF65.29423941794721
aF64.555088042932539
aF63.569552876246341
aF63.569552876246341
aF63.569552876246341
aF63.569552876246341
aF63.569552876246341
aF63.569552876246341
aF63.569552876246341
aF63.569552876246341
aF63.569552876246341
aF63.323169084574779
aF63.569552876246341
aF63.569552876246341
aF63.323169084574779
aF63.323169084574779
aF63.323169084574779
aF63.323169084574779
aF62.830401501231677
aF62.830401501231677
aF62.830401501231677
aF62.830401501231677
aF62.830401501231677
aF61.844866334545458
aF61.844866334545458
aF61.844866334545458
aF61.844866334545458
aF61.844866334545458
aF61.844866334545458
aF61.844866334545458
aF61.844866334545458
aF61.844866334545458
aF61.844866334545458
aF61.844866334545458
aF61.844866334545458
aF61.844866334545458
aF61.844866334545458
aF60.612947376187691
aF60.120179792844581
aF60.120179792844581
aF59.873796001173019
aF59.873796001173019
aF59.873796001173019
aF59.873796001173019
aF59.873796001173019
aF59.873796001173019
aF59.873796001173019
aF59.873796001173019
aF58.888260834486807
aF58.888260834486807
aF57.656341876129041
aF57.656341876129041
aF57.656341876129041
aF57.656341876129041
aF57.656341876129041
aF57.656341876129041
aF57.656341876129041
aF57.656341876129041
aF57.656341876129041
aF57.656341876129041
aF57.656341876129041
aF57.656341876129041
aF57.656341876129041
aF57.656341876129041
aF57.656341876129041
aF57.409958084457493
aF57.409958084457493
aF57.409958084457493
aF56.670806709442822
aF56.670806709442822
aF56.670806709442822
aF56.670806709442822
aF56.178039126099712
aF56.178039126099712
aF56.178039126099712
aF56.178039126099712
aF56.178039126099712
aF55.931655334428157
aF55.931655334428157
aF55.931655334428157
aF55.931655334428157
aF55.931655334428157
aF55.931655334428157
aF55.931655334428157
aF55.931655334428157
aF55.931655334428157
aF55.931655334428157
aF55.931655334428157
aF55.931655334428157
aF55.931655334428157
aF55.931655334428157
aF55.931655334428157
aF55.931655334428157
aF54.946120167741938
aF54.946120167741938
aF54.946120167741938
aF54.946120167741938
aF54.946120167741938
aF53.960585001055719
aF54.946120167741938
aF54.946120167741938
aF54.946120167741938
aF53.960585001055719
aF53.960585001055719
aF53.960585001055719
aF53.960585001055719
aF53.960585001055719
aF53.960585001055719
aF53.960585001055719
aF53.960585001055719
aF53.960585001055719
aF53.960585001055719
aF53.960585001055719
aF53.960585001055719
aF53.960585001055719
aF53.960585001055719
aF52.728666042697945
aF52.235898459354836
aF52.235898459354836
aF52.235898459354836
aF52.235898459354836
aF52.235898459354836
aF51.989514667683288
aF51.989514667683288
aF51.743130876011726
aF51.743130876011726
aF51.743130876011726
aF51.743130876011726
aF51.743130876011726
aF51.743130876011726
aF51.743130876011726
aF51.743130876011726
aF51.743130876011726
aF51.743130876011726
aF51.743130876011726
aF51.743130876011726
aF51.496747084340178
aF51.496747084340178
aF51.496747084340178
aF51.496747084340178
aF51.003979500997069
aF51.003979500997069
aF51.003979500997069
aF51.496747084340178
aF51.003979500997069
aF51.003979500997069
aF49.772060542639295
aF51.003979500997069
aF49.772060542639295
aF49.772060542639295
aF49.772060542639295
aF49.772060542639295
aF49.772060542639295
aF49.772060542639295
aF49.772060542639295
aF49.772060542639295
aF48.786525375953083
aF48.786525375953083
aF49.772060542639295
aF49.52567675096774
aF48.786525375953083
aF48.786525375953083
aF48.786525375953083
aF48.786525375953083
aF48.786525375953083
aF48.786525375953083
aF48.786525375953083
aF48.786525375953083
aF48.786525375953083
aF48.786525375953083
aF48.786525375953083
aF48.786525375953083
aF48.293757792609973
aF48.293757792609973
aF48.047374000938419
aF48.293757792609973
aF48.293757792609973
aF48.293757792609973
aF48.047374000938419
aF48.047374000938419
aF48.047374000938419
aF48.047374000938419
aF48.047374000938419
aF48.047374000938419
aF48.047374000938419
aF48.047374000938419
aF48.047374000938419
aF48.047374000938419
aF48.047374000938419
aF48.047374000938419
aF48.047374000938419
aF48.047374000938419
aF48.047374000938419
aF48.047374000938419
aF48.047374000938419
aF48.047374000938419
aF48.047374000938419
aF48.047374000938419
aF48.047374000938419
aF48.047374000938419
aF48.047374000938419
aF48.047374000938419
aF48.047374000938419
aF48.047374000938419
aF48.047374000938419
aF48.047374000938419
aF48.047374000938419
aF48.047374000938419
aF48.047374000938419
aF48.047374000938419
aF48.047374000938419
aF47.061838834252207
aF48.047374000938419
aF47.061838834252207
aF47.061838834252207
aF47.061838834252207
aF47.061838834252207
aF47.061838834252207
aF47.061838834252207
aF47.061838834252207
aF47.061838834252207
aF46.076303667565988
aF46.076303667565988
aF46.076303667565988
aF46.076303667565988
aF46.076303667565988
aF46.076303667565988
aF46.076303667565988
aF46.076303667565988
aF46.076303667565988
aF46.076303667565988
aF46.076303667565988
aF46.076303667565988
aF46.076303667565988
aF46.076303667565988
aF46.076303667565988
aF46.076303667565988
aF46.076303667565988
aF46.076303667565988
aF46.076303667565988
aF46.076303667565988
aF46.076303667565988
aF46.076303667565988
aF46.076303667565988
aF46.076303667565988
aF46.076303667565988
aF44.844384709208214
aF44.844384709208214
aF44.351617125865104
aF44.351617125865104
aF44.351617125865104
aF44.351617125865104
aF44.105233334193549
aF44.105233334193549
aF44.105233334193549
aF44.105233334193549
aF44.105233334193549
aF44.105233334193549
aF44.105233334193549
aF44.105233334193549
aF44.105233334193549
aF44.105233334193549
aF44.105233334193549
aF44.105233334193549
aF44.105233334193549
aF44.105233334193549
aF44.105233334193549
aF44.105233334193549
aF44.105233334193549
aF44.105233334193549
aF44.105233334193549
aF44.105233334193549
aF43.61246575085044
aF43.11969816750733
aF44.105233334193549
aF44.105233334193549
aF44.105233334193549
aF43.11969816750733
aF43.11969816750733
aF43.11969816750733
aF43.11969816750733
aF43.11969816750733
aF43.11969816750733
aF43.11969816750733
aF43.11969816750733
aF43.11969816750733
aF43.11969816750733
aF43.11969816750733
aF43.11969816750733
aF41.887779209149564
aF41.887779209149564
aF41.887779209149564
aF41.887779209149564
aF41.887779209149564
aF41.887779209149564
aF41.887779209149564
aF41.887779209149564
aF41.887779209149564
aF41.887779209149564
aF41.887779209149564
aF41.887779209149564
aF41.887779209149564
aF41.887779209149564
aF41.887779209149564
aF41.887779209149564
aF41.887779209149564
aF41.887779209149564
aF41.887779209149564
aF41.887779209149564
aF41.887779209149564
aF41.887779209149564
aF41.641395417478016
aF41.641395417478016
aF40.902244042463352
aF41.887779209149564
aF40.902244042463352
aF40.902244042463352
aF40.902244042463352
aF41.887779209149564
aF40.902244042463352
aF40.902244042463352
aF40.902244042463352
aF40.902244042463352
aF40.902244042463352
aF40.902244042463352
aF40.902244042463352
aF40.409476459120235
aF40.902244042463352
aF40.409476459120235
aF40.409476459120235
aF40.409476459120235
aF40.409476459120235
aF40.409476459120235
aF40.902244042463352
aF40.409476459120235
aF40.409476459120235
aF40.409476459120235
aF39.916708875777125
aF40.409476459120235
aF39.916708875777125
aF39.916708875777125
aF39.916708875777125
aF39.916708875777125
aF39.916708875777125
aF39.916708875777125
aF39.916708875777125
aF39.916708875777125
aF39.916708875777125
aF39.916708875777125
aF39.916708875777125
aF39.916708875777125
aF39.916708875777125
aF39.916708875777125
aF39.916708875777125
aF39.916708875777125
aF39.916708875777125
aF39.916708875777125
aF39.916708875777125
aF39.916708875777125
aF39.670325084105571
aF39.670325084105571
aF39.670325084105571
aF39.177557500762468
aF39.670325084105571
aF39.670325084105571
aF39.177557500762468
aF39.177557500762468
aF39.177557500762468
aF39.177557500762468
aF39.670325084105571
aF39.670325084105571
aF39.177557500762468
aF39.177557500762468
aF39.177557500762468
aF39.177557500762468
aF39.177557500762468
aF39.177557500762468
aF39.177557500762468
aF39.177557500762468
aF39.177557500762468
aF39.177557500762468
aF39.177557500762468
aF39.177557500762468
aF39.177557500762468
aF39.177557500762468
aF39.177557500762468
aF38.192022334076249
aF38.192022334076249
aF38.192022334076249
aF38.192022334076249
aF38.192022334076249
aF38.192022334076249
aF38.192022334076249
aF38.192022334076249
aF38.192022334076249
aF38.192022334076249
aF38.192022334076249
aF38.192022334076249
aF38.192022334076249
aF38.192022334076249
aF38.192022334076249
aF38.192022334076249
aF38.192022334076249
aF38.192022334076249
aF38.192022334076249
aF38.192022334076249
aF38.192022334076249
aF38.192022334076249
aF36.467335792375366
aF36.960103375718475
aF36.960103375718475
aF36.960103375718475
aF36.960103375718475
aF36.467335792375366
aF38.192022334076249
aF36.960103375718475
aF36.467335792375366
aF36.467335792375366
aF36.467335792375366
aF36.467335792375366
aF36.467335792375366
aF36.467335792375366
aF36.467335792375366
aF36.467335792375366
aF36.220952000703811
aF36.467335792375366
aF36.467335792375366
aF35.974568209032263
aF35.974568209032263
aF36.467335792375366
aF35.974568209032263
aF36.467335792375366
aF36.467335792375366
aF35.974568209032263
aF36.467335792375366
aF35.974568209032263
aF35.974568209032263
aF35.974568209032263
aF35.974568209032263
aF35.974568209032263
aF35.974568209032263
aF35.974568209032263
aF35.974568209032263
aF35.728184417360708
aF35.974568209032263
aF35.974568209032263
aF35.974568209032263
aF35.974568209032263
aF35.974568209032263
aF35.974568209032263
aF35.974568209032263
aF35.974568209032263
aF35.974568209032263
aF35.974568209032263
aF35.974568209032263
aF35.974568209032263
aF35.728184417360708
aF35.728184417360708
aF35.728184417360708
aF35.728184417360708
aF35.728184417360708
aF35.728184417360708
aF35.235416834017606
aF35.235416834017606
aF35.728184417360708
aF35.728184417360708
aF35.728184417360708
aF35.235416834017606
aF35.235416834017606
aF35.235416834017606
aF35.235416834017606
aF35.235416834017606
aF35.235416834017606
aF35.235416834017606
aF35.235416834017606
aF35.235416834017606
aF35.235416834017606
aF35.235416834017606
aF35.235416834017606
aF34.003497875659825
aF34.003497875659825
aF34.003497875659825
aF34.496265459002935
aF34.003497875659825
aF34.003497875659825
aF35.235416834017606
aF35.235416834017606
aF35.235416834017606
aF34.003497875659825
aF34.003497875659825
aF34.003497875659825
aF34.003497875659825
aF34.003497875659825
aF34.003497875659825
aF34.003497875659825
aF34.003497875659825
aF34.003497875659825
aF34.003497875659825
aF34.003497875659825
aF34.003497875659825
aF34.003497875659825
aF34.003497875659825
aF34.003497875659825
aF34.003497875659825
aF34.003497875659825
aF34.003497875659825
aF34.003497875659825
aF34.003497875659825
aF34.003497875659825
aF34.003497875659825
aF34.003497875659825
aF34.003497875659825
aF34.003497875659825
aF34.003497875659825
aF34.003497875659825
aF34.003497875659825
aF33.75711408398827
aF33.75711408398827
aF34.003497875659825
aF33.017962708973606
aF33.017962708973606
aF33.75711408398827
aF33.017962708973606
aF33.017962708973606
aF33.017962708973606
aF33.75711408398827
aF33.017962708973606
aF33.017962708973606
aF32.032427542287387
aF33.017962708973606
aF33.017962708973606
aF33.017962708973606
aF33.017962708973606
aF33.017962708973606
aF33.017962708973606
aF33.017962708973606
aF33.017962708973606
aF32.525195125630496
aF32.525195125630496
aF33.017962708973606
aF33.017962708973606
aF32.032427542287387
aF32.032427542287387
aF32.032427542287387
aF32.525195125630496
aF32.032427542287387
aF32.032427542287387
aF32.032427542287387
aF32.032427542287387
aF32.032427542287387
aF32.032427542287387
aF32.032427542287387
aF32.032427542287387
aF32.032427542287387
aF32.032427542287387
aF32.032427542287387
aF32.032427542287387
aF32.032427542287387
aF32.032427542287387
aF32.032427542287387
aF32.032427542287387
aF32.032427542287387
aF32.032427542287387
aF32.032427542287387
aF32.032427542287387
aF32.032427542287387
aF32.032427542287387
aF32.032427542287387
aF32.032427542287387
aF32.032427542287387
aF32.032427542287387
aF32.032427542287387
aF32.032427542287387
aF32.032427542287387
aF32.032427542287387
aF32.032427542287387
aF32.032427542287387
aF32.032427542287387
aF32.032427542287387
aF32.032427542287387
aF32.032427542287387
aF32.032427542287387
aF32.032427542287387
aF32.032427542287387
aF32.032427542287387
aF32.032427542287387
aF32.032427542287387
aF32.032427542287387
aF31.786043750615839
aF31.786043750615839
aF31.786043750615839
aF31.786043750615839
aF31.786043750615839
aF31.786043750615839
asS'time_list'
p4
(lp5
F0
aF1.0032041072845459
aF2.0070009231567383
aF3.0109250545501709
aF4.0148401260375977
aF5.0187690258026123
aF6.022691011428833
aF7.0266320705413818
aF8.0305249691009521
aF9.0344491004943848
aF10.037997961044312
aF11.041661977767944
aF12.044235944747925
aF13.047904968261719
aF14.052051067352295
aF15.055969953536987
aF16.059890985488892
aF17.063820123672485
aF18.0677490234375
aF19.071440935134888
aF20.075585126876831
aF21.07950496673584
aF22.083389043807983
aF23.087342023849487
aF24.091262102127075
aF25.095181941986084
aF26.099106073379517
aF27.103024005889893
aF28.106950998306274
aF29.110866069793701
aF30.114391088485718
aF31.117707967758179
aF32.12162709236145
aF33.125549077987671
aF34.129469156265259
aF35.133391141891479
aF36.137315988540649
aF37.141243934631348
aF38.14515209197998
aF39.149075031280518
aF40.152994155883789
aF41.156917095184326
aF42.160840034484863
aF43.164760112762451
aF44.168682098388672
aF45.172600030899048
aF46.175689935684204
aF47.179449081420898
aF48.183365106582642
aF49.186941146850586
aF50.191210985183716
aF51.195127964019775
aF52.199090003967285
aF53.202973127365112
aF54.206565141677856
aF55.210813999176025
aF56.214730024337769
aF57.21866512298584
aF58.222577095031738
aF59.226498126983643
aF60.230422973632812
aF61.234334945678711
aF62.238245010375977
aF63.241270065307617
aF64.245090007781982
aF65.248532056808472
aF66.251932144165039
aF67.255851030349731
aF68.259777069091797
aF69.26369309425354
aF70.267615079879761
aF71.271543979644775
aF72.275457143783569
aF73.279390096664429
aF74.283299922943115
aF75.28721809387207
aF76.29114294052124
aF77.295062065124512
aF78.29850697517395
aF79.301906108856201
aF80.305824041366577
aF81.309747934341431
aF82.313666105270386
aF83.317593097686768
aF84.321506977081299
aF85.324594974517822
aF86.327484130859375
aF87.331274032592773
aF88.335191965103149
aF89.339118003845215
aF90.343035936355591
aF91.346957921981812
aF92.350877046585083
aF93.354805946350098
aF94.358718156814575
aF95.362653970718384
aF96.366560935974121
aF97.36952805519104
aF98.373408079147339
aF99.377324104309082
aF100.38035202026367
aF101.38811206817627
aF102.39209294319153
aF103.39600610733032
aF104.39993405342102
aF105.4038519859314
aF106.40777707099915
aF107.41169214248657
aF108.4156129360199
aF109.41953611373901
aF110.42345595359802
aF111.42737603187561
aF112.43129801750183
aF113.43520498275757
aF114.43848204612732
aF115.44159197807312
aF116.44497799873352
aF117.44919013977051
aF118.45282101631165
aF119.45674300193787
aF120.45977115631104
aF121.46358704566956
aF122.46751308441162
aF123.47143602371216
aF124.47534608840942
aF125.47926998138428
aF126.48319005966187
aF127.48711514472961
aF128.49103498458862
aF129.49495315551758
aF130.49887895584106
aF131.50279402732849
aF132.50671815872192
aF133.51065707206726
aF134.5145571231842
aF135.51849102973938
aF136.52240109443665
aF137.52628302574158
aF138.53024411201477
aF139.53416204452515
aF140.53748798370361
aF141.54100513458252
aF142.54492592811584
aF143.54885101318359
aF144.55276799201965
aF145.55669713020325
aF146.55988502502441
aF147.56353211402893
aF148.56745314598083
aF149.57137799263
aF150.57529902458191
aF151.57922005653381
aF152.58313608169556
aF153.58705902099609
aF154.59019708633423
aF155.59390115737915
aF156.59782195091248
aF157.60174012184143
aF158.60566210746765
aF159.60958409309387
aF160.61350393295288
aF161.61742496490479
aF162.62152099609375
aF163.62526798248291
aF164.62919092178345
aF165.63310813903809
aF166.63703107833862
aF167.64095497131348
aF168.64487600326538
aF169.64848494529724
aF170.65271496772766
aF171.65663313865662
aF172.65990996360779
aF173.66347813606262
aF174.6674120426178
aF175.67132115364075
aF176.67524194717407
aF177.67916202545166
aF178.68308305740356
aF179.68656611442566
aF180.68992710113525
aF181.69294500350952
aF182.69676613807678
aF183.7006950378418
aF184.70463609695435
aF185.70852899551392
aF186.71245002746582
aF187.71637105941772
aF188.71947598457336
aF189.72321605682373
aF190.72716403007507
aF191.73072409629822
aF192.73498106002808
aF193.73891115188599
aF194.74286198616028
aF195.74680709838867
aF196.75067901611328
aF197.75459599494934
aF198.75850009918213
aF199.76241993904114
aF200.76634192466736
aF201.77026414871216
aF202.77417802810669
aF203.77810001373291
aF204.7820200920105
aF205.78567409515381
aF206.79004096984863
aF207.79379606246948
aF208.7977089881897
aF209.80159592628479
aF210.80558395385742
aF211.80947995185852
aF212.81339502334595
aF213.81731700897217
aF214.82123994827271
aF215.82515692710876
aF216.82907509803772
aF217.83299612998962
aF218.83692312240601
aF219.84113097190857
aF220.84476113319397
aF221.84868001937866
aF222.85206294059753
aF223.85553908348083
aF224.8586699962616
aF225.86237502098083
aF226.86628413200378
aF227.87033915519714
aF228.87413096427917
aF229.87804794311523
aF230.88190293312073
aF231.88560104370117
aF232.88983798027039
aF233.8937349319458
aF234.89760613441467
aF235.90158796310425
aF236.90549993515015
aF237.90941905975342
aF238.91334199905396
aF239.91726398468018
aF240.92118310928345
aF241.92510199546814
aF242.92902302742004
aF243.93294310569763
aF244.93686604499817
aF245.94078803062439
aF246.94470810890198
aF247.94862699508667
aF248.95255208015442
aF249.95647001266479
aF250.96039199829102
aF251.96431303024292
aF252.96823406219482
aF253.97216296195984
aF254.97607612609863
aF255.97999405860901
aF256.98391509056091
aF257.98770499229431
aF258.99176001548767
aF259.99568200111389
aF260.99942803382874
aF262.00352311134338
aF263.0074450969696
aF264.0113730430603
aF265.01529312133789
aF266.01921892166138
aF267.02241110801697
aF268.02604699134827
aF269.02996206283569
aF270.03388810157776
aF271.0378201007843
aF272.04130911827087
aF273.04466009140015
aF274.04857492446899
aF275.05242204666138
aF276.05565714836121
aF277.05933809280396
aF278.06325912475586
aF279.06675100326538
aF280.06959509849548
aF281.07304811477661
aF282.07696104049683
aF283.08096408843994
aF284.08477115631104
aF285.08872604370117
aF286.09262800216675
aF287.09653401374817
aF288.10047602653503
aF289.10439109802246
aF290.10831212997437
aF291.1122350692749
aF292.11615300178528
aF293.12015104293823
aF294.12401103973389
aF295.1279239654541
aF296.13183403015137
aF297.13575601577759
aF298.13968205451965
aF299.14360094070435
aF300.14752507209778
aF301.15144395828247
aF302.15535998344421
aF303.15928292274475
aF304.16320705413818
aF305.16712594032288
aF306.1710479259491
aF307.17496609687805
aF308.17888712882996
aF309.18280696868896
aF310.18673515319824
aF311.19066715240479
aF312.19457197189331
aF313.19849395751953
aF314.20244097709656
aF315.20633912086487
aF316.21026611328125
aF317.21417307853699
aF318.21809315681458
aF319.2220151424408
aF320.2259349822998
aF321.22985696792603
aF322.23378705978394
aF323.23769807815552
aF324.24161911010742
aF325.24554109573364
aF326.24946093559265
aF327.25338196754456
aF328.25630712509155
aF329.26022815704346
aF330.26414513587952
aF331.26806592941284
aF332.27198600769043
aF333.27590894699097
aF334.27983593940735
aF335.28375506401062
aF336.287672996521
aF337.29159212112427
aF338.29551792144775
aF339.29943513870239
aF340.30335712432861
aF341.30727195739746
aF342.31119513511658
aF343.31511998176575
aF344.31907415390015
aF345.32296204566956
aF346.32688593864441
aF347.33080506324768
aF348.33472299575806
aF349.33866715431213
aF350.34259796142578
aF351.34649896621704
aF352.35040497779846
aF353.35433006286621
aF354.35825514793396
aF355.36216592788696
aF356.36609601974487
aF357.37001204490662
aF358.37330913543701
aF359.37685012817383
aF360.38076615333557
aF361.38468599319458
aF362.38861107826233
aF363.39253211021423
aF364.39646196365356
aF365.400386095047
aF366.40429902076721
aF367.40822005271912
aF368.41214394569397
aF369.41606593132019
aF370.41998910903931
aF371.42390394210815
aF372.42782711982727
aF373.43174815177917
aF374.43567204475403
aF375.43959093093872
aF376.44351196289062
aF377.44743013381958
aF378.45135807991028
aF379.45527601242065
aF380.45919799804688
aF381.46311593055725
aF382.46703696250916
aF383.47786712646484
aF384.48159503936768
aF385.48580503463745
aF386.48972105979919
aF387.4936420917511
aF388.49756407737732
aF389.5014820098877
aF390.50540614128113
aF391.50932812690735
aF392.51324009895325
aF393.51716494560242
aF394.52108693122864
aF395.52500700950623
aF396.52892208099365
aF397.53284597396851
aF398.53676700592041
aF399.54068303108215
aF400.54460597038269
aF401.54853415489197
aF402.55246305465698
aF403.55637407302856
aF404.56029510498047
aF405.56422305107117
aF406.56814193725586
aF407.57206392288208
aF408.57598996162415
aF409.57990407943726
aF410.58382415771484
aF411.58774209022522
aF412.59166598320007
aF413.59558796882629
aF414.59950804710388
aF415.6034300327301
aF416.60735011100769
aF417.61127400398254
aF418.61518907546997
aF419.61911511421204
aF420.62303709983826
aF421.62809205055237
aF422.63188004493713
aF423.63579893112183
aF424.64159107208252
aF425.64559292793274
aF426.64959502220154
aF427.65359592437744
aF428.65841913223267
aF429.66232514381409
aF430.66959309577942
aF431.67316699028015
aF432.67708396911621
aF433.68422698974609
aF434.6879301071167
aF435.69185400009155
aF436.69759202003479
aF437.70168995857239
aF438.70561099052429
aF439.70958995819092
aF440.71301913261414
aF441.71637201309204
aF442.72549700737
aF443.72921395301819
aF444.73212313652039
aF445.73859214782715
aF446.74197196960449
aF447.7459020614624
aF448.75235915184021
aF449.75576305389404
aF450.75966000556946
aF451.76548314094543
aF452.76950192451477
aF453.77342915534973
aF454.77859115600586
aF455.78225994110107
aF456.78618812561035
aF457.79273700714111
aF458.79703402519226
aF459.80080008506775
aF460.80559015274048
aF461.80979299545288
aF462.81370997428894
aF463.82000994682312
aF464.82356905937195
aF465.827476978302
aF466.83139395713806
aF467.83531498908997
aF468.83923697471619
aF469.84315705299377
aF470.84707713127136
aF471.85099911689758
aF472.85491895675659
aF473.85884213447571
aF474.86276292800903
aF475.86669111251831
aF476.87061309814453
aF477.87456607818604
aF478.87853097915649
aF479.88236713409424
aF480.88628602027893
aF481.89020705223083
aF482.89412903785706
aF483.89805197715759
aF484.90197110176086
aF485.90589213371277
aF486.90981197357178
aF487.91365504264832
aF488.91774010658264
aF489.9215841293335
aF490.92549610137939
aF491.92941308021545
aF492.93332815170288
aF493.93724894523621
aF494.94117999076843
aF495.9451220035553
aF496.94902515411377
aF497.9529390335083
aF498.95685410499573
aF499.96077394485474
aF500.96469807624817
aF501.96861696243286
aF502.97253799438477
aF503.9764621257782
aF504.98038005828857
aF505.98430299758911
aF506.98822808265686
aF507.99215602874756
aF508.99608111381531
aF509.99999809265137
aF511.00391507148743
aF512.00783514976501
aF513.01175904273987
aF514.01522493362427
aF515.01859903335571
aF516.02251100540161
aF517.02643203735352
aF518.03035306930542
aF519.03427314758301
aF520.03820204734802
aF521.04211592674255
aF522.04603910446167
aF523.04995703697205
aF524.05387806892395
aF525.05758714675903
aF526.06172704696655
aF527.0656909942627
aF528.06956195831299
aF529.07349801063538
aF530.07740712165833
aF531.08132696151733
aF532.08524894714355
aF533.08916807174683
aF534.09308695793152
aF535.09701013565063
aF536.10093212127686
aF537.10485410690308
aF538.10877299308777
aF539.11269497871399
aF540.11661505699158
aF541.1205370426178
aF542.12445902824402
aF543.12837910652161
aF544.13230013847351
aF545.13622093200684
aF546.14014101028442
aF547.14408993721008
aF548.14771699905396
aF549.15190100669861
aF550.15582895278931
aF551.15974712371826
aF552.16366600990295
aF553.16758894920349
aF554.1715099811554
aF555.1754310131073
aF556.1793520450592
aF557.18327403068542
aF558.18741893768311
aF559.19111514091492
aF560.19503712654114
aF561.19896411895752
aF562.20288109779358
aF563.20679903030396
aF564.21072292327881
aF565.21465110778809
aF566.21856307983398
aF567.22248411178589
aF568.22640204429626
aF569.23032402992249
aF570.23424696922302
aF571.23816895484924
aF572.2420871257782
aF573.24601411819458
aF574.24993205070496
aF575.25384998321533
aF576.25777196884155
aF577.2616970539093
aF578.26561498641968
aF579.2695369720459
aF580.27345514297485
aF581.27737498283386
aF582.28129696846008
aF583.28521704673767
aF584.28913903236389
aF585.29306507110596
aF586.2969810962677
aF587.30090308189392
aF588.30482196807861
aF589.30874395370483
aF590.31266713142395
aF591.31658601760864
aF592.32050704956055
aF593.32442593574524
aF594.32832908630371
aF595.33227109909058
aF596.33619213104248
aF597.34013795852661
aF598.34403300285339
aF599.3479540348053
aF600.3518750667572
aF601.35580992698669
aF602.35972213745117
aF603.36364698410034
aF604.36756300926208
aF605.37149000167847
aF606.37540411949158
aF607.37834000587463
aF608.38225412368774
aF609.38616609573364
aF610.39008808135986
aF611.39400696754456
aF612.39792895317078
aF613.40185213088989
aF614.40576696395874
aF615.40969109535217
aF616.41361308097839
aF617.41753005981445
aF618.42145395278931
aF619.42537498474121
aF620.42930197715759
aF621.4332160949707
aF622.4371349811554
aF623.44105696678162
aF624.44497895240784
aF625.44890308380127
aF626.45282196998596
aF627.45674109458923
aF628.46065902709961
aF629.46458101272583
aF630.46850514411926
aF631.47242498397827
aF632.47636198997498
aF633.48027014732361
aF634.48418712615967
aF635.48810911178589
aF636.4920289516449
aF637.49595308303833
aF638.4998779296875
aF639.50379300117493
aF640.50771403312683
aF641.51163196563721
aF642.51555895805359
aF643.51947903633118
aF644.52339696884155
aF645.5273220539093
aF646.53124213218689
aF647.53516101837158
aF648.53907895088196
aF649.54300308227539
aF650.54692697525024
aF651.55084609985352
aF652.55471301078796
aF653.55869603157043
aF654.56261610984802
aF655.56653308868408
aF656.57045006752014
aF657.57436895370483
aF658.57829093933105
aF659.58221101760864
aF660.58613395690918
aF661.59005498886108
aF662.59397411346436
aF663.59789514541626
aF664.6018180847168
aF665.60573792457581
aF666.60966205596924
aF667.6135880947113
aF668.61750292778015
aF669.62142109870911
aF670.62534308433533
aF671.62926292419434
aF672.63318514823914
aF673.6361129283905
aF674.6400260925293
aF675.64394807815552
aF676.64786911010742
aF677.65178894996643
aF678.65570998191833
aF679.65963196754456
aF680.6635570526123
aF681.66747212409973
aF682.67141008377075
aF683.67531514167786
aF684.67923712730408
aF685.68316102027893
aF686.68708109855652
aF687.69099807739258
aF688.6949200630188
aF689.69884610176086
aF690.7027690410614
aF691.70669102668762
aF692.71061611175537
aF693.71359205245972
aF694.71645092964172
aF695.720370054245
aF696.72428798675537
aF697.72820997238159
aF698.73213005065918
aF699.73605012893677
aF700.73997211456299
aF701.74389910697937
aF702.7478129863739
aF703.75173592567444
aF704.75565695762634
aF705.75957608222961
aF706.76350092887878
aF707.76742601394653
aF708.77133893966675
aF709.77526211738586
aF710.77918100357056
aF711.78310203552246
aF712.78702402114868
aF713.7909460067749
aF714.79486894607544
aF715.79879212379456
aF716.80270910263062
aF717.80663704872131
aF718.81054997444153
aF719.81447696685791
aF720.81839108467102
aF721.82231211662292
aF722.82559299468994
aF723.8291540145874
aF724.83307600021362
aF725.83699703216553
aF726.84091806411743
aF727.84483504295349
aF728.84875798225403
aF729.85267806053162
aF730.85660099983215
aF731.86052298545837
aF732.86443996429443
aF733.86836314201355
aF734.87228393554688
aF735.87620806694031
aF736.88013410568237
aF737.88404607772827
aF738.88796710968018
aF739.8918890953064
aF740.89581108093262
aF741.89972901344299
aF742.90365099906921
aF743.90757203102112
aF744.91149306297302
aF745.91541409492493
aF746.91933703422546
aF747.92325615882874
aF748.92717599868774
aF749.93110013008118
aF750.93501901626587
aF751.93894004821777
aF752.94285702705383
aF753.9467830657959
aF754.95072293281555
aF755.95463514328003
aF756.9585440158844
aF757.9624650478363
aF758.96638798713684
aF759.96959400177002
aF760.9732301235199
aF761.97714996337891
aF762.98106908798218
aF763.9849910736084
aF764.98891305923462
aF765.99283313751221
aF766.9967520236969
aF768.00067710876465
aF769.00459599494934
aF770.00851798057556
aF771.01243996620178
aF772.01636505126953
aF773.02028107643127
aF774.02419996261597
aF775.02813005447388
aF776.03202104568481
aF777.03596305847168
aF778.03988409042358
aF779.04380512237549
aF780.04772901535034
aF781.05165004730225
aF782.05557107925415
aF783.05949211120605
aF784.06341600418091
aF785.0673451423645
aF786.07125306129456
aF787.07517409324646
aF788.079097032547
aF789.08302211761475
aF790.08693599700928
aF791.09085893630981
aF792.09478092193604
aF793.09870100021362
aF794.10262894630432
aF795.1065411567688
aF796.11047101020813
aF797.11438512802124
aF798.11830401420593
aF799.12222695350647
aF800.12614703178406
aF801.13007092475891
aF802.13399600982666
aF803.13790893554688
aF804.14182996749878
aF805.14560103416443
aF806.14967393875122
aF807.15359210968018
aF808.15751194953918
aF809.16143298149109
aF810.16535401344299
aF811.16927909851074
aF812.17319893836975
aF813.17711710929871
aF814.18103814125061
aF815.18496108055115
aF816.18887901306152
aF817.19280409812927
aF818.19674706459045
aF819.20064496994019
aF820.20560097694397
aF821.20948696136475
aF822.2134051322937
aF823.21759009361267
aF824.22225403785706
aF825.22616910934448
aF826.23459315299988
aF827.23800611495972
aF828.24193596839905
aF829.24851894378662
aF830.25277614593506
aF831.25669312477112
aF832.26159000396729
aF833.26554393768311
aF834.26945495605469
aF835.2733781337738
aF836.27731108665466
aF837.28122806549072
aF838.28660893440247
aF839.29006314277649
aF840.2939829826355
aF841.30034899711609
aF842.30382609367371
aF843.30774593353271
aF844.31410908699036
aF845.31758904457092
aF846.32150793075562
aF847.32780003547668
aF848.33134913444519
aF849.33527207374573
aF850.34151601791382
aF851.34503698348999
aF852.34905815124512
aF853.35459494590759
aF854.35887098312378
aF855.36280107498169
aF856.369136095047
aF857.37264108657837
aF858.3765549659729
aF859.38158893585205
aF860.38539814949036
aF861.38932013511658
aF862.3932421207428
aF863.39718008041382
aF864.40108013153076
aF865.40500092506409
aF866.40893292427063
aF867.41283893585205
aF868.41676211357117
aF869.42070293426514
aF870.42461109161377
aF871.42819714546204
aF872.43246793746948
aF873.43637299537659
aF874.44029307365417
aF875.44423413276672
aF876.44992709159851
aF877.45859503746033
aF878.46198296546936
aF879.46559405326843
aF880.47282695770264
aF881.4767439365387
aF882.4806809425354
aF883.48659110069275
aF884.49049711227417
aF885.49443292617798
aF886.49759292602539
aF887.51129293441772
aF888.51519107818604
aF889.52158999443054
aF890.52503395080566
aF891.52894806861877
aF892.53288102149963
aF893.53680801391602
aF894.54075193405151
aF895.54823613166809
aF896.55153608322144
aF897.5554940700531
aF898.56159114837646
aF899.56432700157166
aF900.56824207305908
aF901.57459306716919
aF902.57807993888855
aF903.58199405670166
aF904.58959293365479
aF905.59385108947754
aF906.59776306152344
aF907.6015989780426
aF908.60560703277588
aF909.60912799835205
aF910.6172730922699
aF911.62061405181885
aF912.62429404258728
aF913.6305890083313
aF914.63329005241394
aF915.63704609870911
aF916.64478015899658
aF917.6488881111145
aF918.65274596214294
aF919.6576030254364
aF920.66167497634888
aF921.66513705253601
aF922.66958904266357
aF923.67341613769531
aF924.67733097076416
aF925.68126106262207
aF926.68519711494446
aF927.68909692764282
aF928.7000880241394
aF929.70394492149353
aF930.70786309242249
aF931.71258211135864
aF932.71671199798584
aF933.7206289768219
aF934.72559309005737
aF935.72856307029724
aF936.73238110542297
aF937.74033403396606
aF938.74422311782837
aF939.74813294410706
aF940.75409007072449
aF941.75758504867554
aF942.76090812683105
aF943.76482915878296
aF944.76875615119934
aF945.7726719379425
aF946.78158903121948
aF947.78551292419434
aF948.78942513465881
aF949.79334807395935
aF950.79729008674622
aF951.80121994018555
aF952.8096010684967
aF953.81304597854614
aF954.8169801235199
aF955.82400512695312
aF956.82780408859253
aF957.83107995986938
aF958.83465504646301
aF959.83856511116028
aF960.8424870967865
aF961.84640192985535
aF962.8503270149231
aF963.854248046875
aF964.85816311836243
aF965.86208701133728
aF966.86601305007935
aF967.86993598937988
aF968.87384915351868
aF969.87776803970337
aF970.88169193267822
aF971.88542509078979
aF972.88953614234924
aF973.89345407485962
aF974.89737296104431
aF975.90129399299622
aF976.90526294708252
aF977.90915203094482
aF978.91309404373169
aF979.91600799560547
aF980.91993308067322
aF981.92388606071472
aF982.92775702476501
aF983.93168711662292
aF984.93559598922729
aF985.93952393531799
aF986.94344711303711
aF987.94736099243164
aF988.95128011703491
aF989.95519995689392
aF990.95912408828735
aF991.96205902099609
aF992.9656081199646
aF993.96988201141357
aF994.97381901741028
aF995.97773003578186
aF996.98164510726929
aF997.98557615280151
aF998.98949408531189
aF999.99342107772827
aF1000.9973299503326
aF1002.0012500286102
aF1003.0051729679108
aF1004.0090961456299
aF1005.0130290985107
aF1006.0169370174408
aF1007.0208611488342
aF1008.0247800350189
aF1009.0287029743195
aF1010.032623052597
aF1011.0365381240845
aF1012.040463924408
aF1013.0443880558014
aF1014.0483040809631
aF1015.0517570972443
aF1016.0551469326019
aF1017.0590770244598
aF1018.0629949569702
aF1019.0669360160828
aF1020.0708310604095
aF1021.074746131897
aF1022.0786769390106
aF1023.0825941562653
aF1024.0855450630188
aF1025.0894291400909
aF1026.0933499336243
aF1027.097265958786
aF1028.1011941432953
aF1029.1051099300385
aF1030.1090309619904
aF1031.1129510402679
aF1032.1168789863586
aF1033.1207990646362
aF1034.124715089798
aF1035.1286330223083
aF1036.1325509548187
aF1037.1364729404449
aF1038.1404011249542
aF1039.1443250179291
aF1040.1482601165771
aF1041.152195930481
aF1042.1560959815979
aF1043.1599879264832
aF1044.1639311313629
aF1045.167848110199
aF1046.171767950058
aF1047.1752350330353
aF1048.1786150932312
aF1049.1825230121613
aF1050.186450958252
aF1051.1903750896454
aF1052.1936221122742
aF1053.1972501277924
aF1054.2011370658875
aF1055.2050540447235
aF1056.2089779376984
aF1057.212895154953
aF1058.2168200016022
aF1059.2207429409027
aF1060.2246570587158
aF1061.2285850048065
aF1062.2325620651245
aF1063.2364599704742
aF1064.240355014801
aF1065.2442879676819
aF1066.248193025589
aF1067.2521131038666
aF1068.2560319900513
aF1069.2600150108337
aF1070.2638869285583
aF1071.2677979469299
aF1072.2717230319977
aF1073.2756359577179
aF1074.2795541286469
aF1075.2834770679474
aF1076.2874050140381
aF1077.2913229465485
aF1078.2952411174774
aF1079.2991719245911
aF1080.303081035614
aF1081.3070020675659
aF1082.3109290599823
aF1083.314868927002
aF1084.3180260658264
aF1085.3217091560364
aF1086.325611114502
aF1087.3295290470123
aF1088.3334560394287
aF1089.3373701572418
aF1090.3412909507751
aF1091.3442511558533
aF1092.3481349945068
aF1093.3520619869232
aF1094.355975151062
aF1095.3598959445953
aF1096.3638169765472
aF1097.3677449226379
aF1098.3709471225739
aF1099.3745801448822
aF1100.3785021305084
aF1101.383857011795
aF1102.3873529434204
aF1103.3912661075592
aF1104.3951849937439
aF1105.3991079330444
aF1106.4030311107635
aF1107.4069521427155
aF1108.4108700752258
aF1109.4138219356537
aF1110.4177179336548
aF1111.4216320514679
aF1112.4255540370941
aF1113.4294729232788
aF1114.4333951473236
aF1115.4373171329498
aF1116.4412450790405
aF1117.445160150528
aF1118.4484190940857
aF1119.452173948288
aF1120.45592212677
aF1121.4598431587219
aF1122.4637639522552
aF1123.4676871299744
aF1124.4716060161591
aF1125.4749090671539
aF1126.4784491062164
aF1127.4823739528656
aF1128.4862880706787
aF1129.4902150630951
aF1130.4941351413727
aF1131.4980530738831
aF1132.5019559860229
aF1133.505893945694
aF1134.5098130702972
aF1135.5135941505432
aF1136.5176889896393
aF1137.5215830802917
aF1138.5254991054535
aF1139.5294210910797
aF1140.5333399772644
aF1141.5373020172119
aF1142.5411911010742
aF1143.5451049804688
aF1144.5490231513977
aF1145.5529470443726
aF1146.5568649768829
aF1147.5607881546021
aF1148.5643169879913
aF1149.5676300525665
aF1150.5715749263763
aF1151.5754771232605
aF1152.5793931484222
aF1153.5833129882812
aF1154.5872340202332
aF1155.5911569595337
aF1156.5950751304626
aF1157.5990009307861
aF1158.6020929813385
aF1159.6058459281921
aF1160.6097619533539
aF1161.613049030304
aF1162.6166031360626
aF1163.6205279827118
aF1164.6244421005249
aF1165.6283640861511
aF1166.6322860717773
aF1167.6362061500549
aF1168.6401290893555
aF1169.6440529823303
aF1170.6479680538177
aF1171.6518881320953
aF1172.6558201313019
aF1173.6597371101379
aF1174.6636610031128
aF1175.667573928833
aF1176.6714999675751
aF1177.6746680736542
aF1178.6783411502838
aF1179.682256937027
aF1180.6861789226532
aF1181.6900990009308
aF1182.694020986557
aF1183.6979489326477
aF1184.7018640041351
aF1185.7057881355286
aF1186.7097029685974
aF1187.7136280536652
aF1188.7175431251526
aF1189.721470117569
aF1190.7253861427307
aF1191.729306936264
aF1192.7332289218903
aF1193.7372150421143
aF1194.7410731315613
aF1195.7449929714203
aF1196.7489140033722
aF1197.7528390884399
aF1198.7567551136017
aF1199.7604031562805
aF1200.7645990848541
aF1201.7685251235962
aF1202.772439956665
aF1203.7763590812683
aF1204.7800650596619
aF1205.7842030525208
aF1206.788125038147
aF1207.7916090488434
aF1208.7949740886688
aF1209.7988851070404
aF1210.8027131557465
aF1211.8065929412842
aF1212.8103730678558
aF1213.8145780563354
aF1214.8184940814972
aF1215.8224120140076
aF1216.8263440132141
aF1217.8296041488647
aF1218.8331940174103
aF1219.8367350101471
aF1220.8410129547119
aF1221.8449289798737
aF1222.8482551574707
aF1223.8517780303955
aF1224.8557040691376
aF1225.859619140625
aF1226.8635449409485
aF1227.8674690723419
aF1228.8713850975037
aF1229.8753190040588
aF1230.8792319297791
aF1231.8831541538239
aF1232.8870720863342
aF1233.8909890651703
aF1234.8949160575867
aF1235.8988270759583
aF1236.9027450084686
aF1237.9066791534424
aF1238.9105961322784
aF1239.9145050048828
aF1240.9184420108795
aF1241.9223620891571
aF1242.9262731075287
aF1243.9301910400391
aF1244.9341149330139
aF1245.9380309581757
aF1246.9419550895691
aF1247.9458780288696
aF1248.9498069286346
aF1249.9537191390991
aF1250.9576399326324
aF1251.9615559577942
aF1252.9654769897461
aF1253.9694120883942
aF1254.9733190536499
aF1255.9772419929504
aF1256.9812040328979
aF1257.9850931167603
aF1258.9890151023865
aF1259.9929420948029
aF1260.9968540668488
aF1262.0007970333099
aF1263.0046961307526
aF1264.0086121559143
aF1265.0125319957733
aF1266.0164549350739
aF1267.0203680992126
aF1268.0237851142883
aF1269.0272159576416
aF1270.0311379432678
aF1271.0350739955902
aF1272.0390059947968
aF1273.0429351329803
aF1274.0468239784241
aF1275.0507431030273
aF1276.0546770095825
aF1277.0586080551147
aF1278.0625109672546
aF1279.0664501190186
aF1280.0703530311584
aF1281.0748820304871
aF1282.0781970024109
aF1283.0820751190186
aF1284.0860359668732
aF1285.0895359516144
aF1286.0928890705109
aF1287.0968041419983
aF1288.1007270812988
aF1289.1046259403229
aF1290.1085660457611
aF1291.1124811172485
aF1292.1164031028748
aF1293.1203210353851
aF1294.1242480278015
aF1295.1281671524048
aF1296.1322529315948
aF1297.1354341506958
aF1298.13893699646
aF1299.142872095108
aF1300.1467940807343
aF1301.1500170230865
aF1302.1535940170288
aF1303.1575219631195
aF1304.1614789962769
aF1305.1648571491241
aF1306.1683061122894
aF1307.1722321510315
aF1308.1761441230774
aF1309.1800611019135
aF1310.1839821338654
aF1311.1879091262817
aF1312.1918110847473
aF1313.195760011673
aF1314.1996920108795
aF1315.2035880088806
aF1316.207515001297
aF1317.2114291191101
aF1318.215350151062
aF1319.2192690372467
aF1320.2231919765472
aF1321.2271139621735
aF1322.2310349941254
aF1323.2349529266357
aF1324.2388761043549
aF1325.2428481578827
aF1326.2467200756073
aF1327.2506449222565
aF1328.2545700073242
aF1329.2584779262543
aF1330.2624001502991
aF1331.2663221359253
aF1332.27024102211
aF1333.2741661071777
aF1334.2780840396881
aF1335.2812111377716
aF1336.2849271297455
aF1337.2885580062866
aF1338.2927701473236
aF1339.2966899871826
aF1340.300614118576
aF1341.3045310974121
aF1342.308452129364
aF1343.3123779296875
aF1344.3162951469421
aF1345.320228099823
aF1346.3241391181946
aF1347.3280651569366
aF1348.3318099975586
aF1349.3359000682831
aF1350.3398189544678
aF1351.3437509536743
aF1352.3472580909729
aF1353.3506140708923
aF1354.354504108429
aF1355.3575320243835
aF1356.3613550662994
aF1357.3652670383453
aF1358.3691871166229
aF1359.373113155365
aF1360.377032995224
aF1361.3809659481049
aF1362.3848690986633
aF1363.3887679576874
aF1364.3927340507507
aF1365.3958301544189
aF1366.3995599746704
aF1367.4034869670868
aF1368.4074120521545
aF1369.4113309383392
aF1370.415274143219
aF1371.4191610813141
aF1372.4230761528015
aF1373.4270100593567
aF1374.4309689998627
aF1375.4348609447479
aF1376.4387669563293
aF1377.4426910877228
aF1378.4466149806976
aF1379.4506011009216
aF1380.4544529914856
aF1381.4583699703217
aF1382.4622890949249
aF1383.4655950069427
aF1384.4691460132599
aF1385.4730539321899
aF1386.4769721031189
aF1387.4808940887451
aF1388.4841611385345
aF1389.4877359867096
aF1390.4918370246887
aF1391.4955780506134
aF1392.4994990825653
aF1393.5034210681915
aF1394.5073430538177
aF1395.5103280544281
aF1396.5141820907593
aF1397.5181081295013
aF1398.522027015686
aF1399.5259490013123
aF1400.52987408638
aF1401.5336170196533
aF1402.5377759933472
aF1403.5415959358215
aF1404.5455899238586
aF1405.5494720935822
aF1406.5532560348511
aF1407.5573129653931
aF1408.5612239837646
aF1409.5651450157166
aF1410.5690660476685
aF1411.572986125946
aF1412.5769100189209
aF1413.5808310508728
aF1414.5847561359406
aF1415.5886740684509
aF1416.5925920009613
aF1417.5965039730072
aF1418.6004369258881
aF1419.6043610572815
aF1420.6082739830017
aF1421.6120929718018
aF1422.6161179542542
aF1423.6200399398804
aF1424.6239700317383
aF1425.628103017807
aF1426.6318030357361
aF1427.6357269287109
aF1428.6396510601044
aF1429.6427731513977
aF1430.6465001106262
aF1431.6504080295563
aF1432.6543290615082
aF1433.6580100059509
aF1434.662171125412
aF1435.6661009788513
aF1436.6700129508972
aF1437.6739330291748
aF1438.677873134613
aF1439.6817710399628
aF1440.6856920719147
aF1441.6896200180054
aF1442.6935420036316
aF1443.697457075119
aF1444.7013750076294
aF1445.7052941322327
aF1446.7092199325562
aF1447.7131400108337
aF1448.7170629501343
aF1449.7209799289703
aF1450.7249031066895
aF1451.7288210391998
aF1452.7323780059814
aF1453.7356660366058
aF1454.7395870685577
aF1455.7435081005096
aF1456.7474269866943
aF1457.7513489723206
aF1458.7552750110626
aF1459.7591941356659
aF1460.7631139755249
aF1461.7670300006866
aF1462.7706949710846
aF1463.7748789787292
aF1464.7788059711456
aF1465.7827219963074
aF1466.7866599559784
aF1467.7906219959259
aF1468.7944850921631
aF1469.7984030246735
aF1470.802323102951
aF1471.8062500953674
aF1472.8101720809937
aF1473.8140170574188
aF1474.8180091381073
aF1475.8228671550751
aF1476.826849937439
aF1477.8307659626007
aF1478.8346891403198
aF1479.8386170864105
aF1480.8425281047821
aF1481.8464579582214
aF1482.8495860099792
aF1483.8523049354553
aF1484.8562240600586
aF1485.860132932663
aF1486.8640551567078
aF1487.8679809570312
aF1488.8718960285187
aF1489.8758170604706
aF1490.8797430992126
aF1491.8836641311646
aF1492.8867840766907
aF1493.8905050754547
aF1494.8944201469421
aF1495.8983430862427
aF1496.9022660255432
aF1497.9061980247498
aF1498.9101071357727
aF1499.9140319824219
aF1500.9179470539093
aF1501.9218699932098
aF1502.9257919788361
aF1503.9298379421234
aF1504.9328720569611
aF1505.9365561008453
aF1506.9404730796814
aF1507.9443941116333
aF1508.9483180046082
aF1509.9522371292114
aF1510.9561579227448
aF1511.9597489833832
aF1512.964005947113
aF1513.9679341316223
aF1514.9718501567841
aF1515.9757659435272
aF1516.9796891212463
aF1517.9836139678955
aF1518.9875271320343
aF1519.9914479255676
aF1520.995414018631
aF1521.9992980957031
aF1523.003221988678
aF1524.0071449279785
aF1525.0110599994659
aF1526.0149791240692
aF1527.0188989639282
aF1528.0228190422058
aF1529.0267419815063
aF1530.0306739807129
aF1531.0345981121063
aF1532.0385069847107
aF1533.041620016098
aF1534.0454981327057
aF1535.04927110672
aF1536.0532059669495
aF1537.0571110248566
aF1538.0610311031342
aF1539.0649819374084
aF1540.0688619613647
aF1541.0727951526642
aF1542.0767121315002
aF1543.0806369781494
aF1544.0845539569855
aF1545.0884780883789
aF1546.0923991203308
aF1547.0963230133057
aF1548.1002380847931
aF1549.1041550636292
aF1550.108078956604
aF1551.1120021343231
aF1552.1159269809723
aF1553.1198539733887
aF1554.1237690448761
aF1555.1275789737701
aF1556.1316089630127
aF1557.1355309486389
aF1558.139454126358
aF1559.1433811187744
aF1560.1473059654236
aF1561.1512200832367
aF1562.1551399230957
aF1563.1590549945831
aF1564.1629741191864
aF1565.1668901443481
aF1566.1708171367645
aF1567.1747379302979
aF1568.1786670684814
aF1569.1825821399689
aF1570.1865019798279
aF1571.190425157547
aF1572.1943709850311
aF1573.1975939273834
aF1574.2011959552765
aF1575.2051150798798
aF1576.20911693573
aF1577.2129590511322
aF1578.2168929576874
aF1579.2208631038666
aF1580.2247171401978
aF1581.2283890247345
aF1582.2325661182404
aF1583.2364790439606
aF1584.2403991222382
aF1585.2443220615387
aF1586.2473161220551
aF1587.2511639595032
aF1588.2550830841064
aF1589.2590019702911
aF1590.2629399299622
aF1591.2668521404266
aF1592.2707691192627
aF1593.2747020721436
aF1594.2786121368408
aF1595.2825231552124
aF1596.2864429950714
aF1597.2899949550629
aF1598.2932970523834
aF1599.2972071170807
aF1600.3011341094971
aF1601.3050870895386
aF1602.308974981308
aF1603.3128991127014
aF1604.3168389797211
aF1605.3207380771637
aF1606.3246541023254
aF1607.328577041626
aF1608.332503080368
aF1609.3364160060883
aF1610.3403460979462
aF1611.3442599773407
aF1612.3481850624084
aF1613.3520979881287
aF1614.3560209274292
aF1615.3599510192871
aF1616.3638670444489
aF1617.3677830696106
aF1618.3717119693756
aF1619.3756289482117
aF1620.3795471191406
aF1621.3834710121155
aF1622.3873960971832
aF1623.3913149833679
aF1624.3952310085297
aF1625.3990969657898
aF1626.4030759334564
aF1627.4069991111755
aF1628.4109270572662
aF1629.4148371219635
aF1630.4187109470367
aF1631.4226679801941
aF1632.4265871047974
aF1633.4305100440979
aF1634.4344329833984
aF1635.4383471012115
aF1636.4422690868378
aF1637.4456131458282
aF1638.4491250514984
aF1639.4530439376831
aF1640.45698595047
aF1641.460921049118
aF1642.4646649360657
aF1643.4687371253967
aF1644.4726519584656
aF1645.4765810966492
aF1646.480495929718
aF1647.4844150543213
aF1648.4883351325989
aF1649.4922559261322
aF1650.4961760044098
aF1651.4990990161896
aF1652.5030210018158
aF1653.5069401264191
aF1654.5108699798584
aF1655.5147840976715
aF1656.5187020301819
aF1657.5226409435272
aF1658.52654504776
aF1659.5304620265961
aF1660.5343899726868
aF1661.5383081436157
aF1662.5422370433807
aF1663.5455899238586
aF1664.5490670204163
aF1665.5529961585999
aF1666.5561249256134
aF1667.5590751171112
aF1668.5627551078796
aF1669.5666880607605
aF1670.5706760883331
aF1671.5745179653168
aF1672.578446149826
aF1673.5823659896851
aF1674.5862829685211
aF1675.5902061462402
aF1676.5941331386566
aF1677.5980501174927
aF1678.6019699573517
aF1679.6058919429779
aF1680.6098120212555
aF1681.6137320995331
aF1682.6172840595245
aF1683.6215870380402
aF1684.6255040168762
aF1685.6294181346893
aF1686.633376121521
aF1687.6372640132904
aF1688.6411790847778
aF1689.6451029777527
aF1690.6490199565887
aF1691.6529450416565
aF1692.6568639278412
aF1693.660786151886
aF1694.664705991745
aF1695.6686260700226
aF1696.6725471019745
aF1697.6764750480652
aF1698.6803901195526
aF1699.6843161582947
aF1700.6882390975952
aF1701.692155122757
aF1702.6960799694061
aF1703.6999940872192
aF1704.7039220333099
aF1705.7078349590302
aF1706.7117619514465
aF1707.7156920433044
aF1708.7195999622345
aF1709.7235200405121
aF1710.7274360656738
aF1711.7313570976257
aF1712.735279083252
aF1713.7392010688782
aF1714.7431309223175
aF1715.7470231056213
aF1716.750951051712
aF1717.7548811435699
aF1718.7588150501251
aF1719.7627289295197
aF1720.7666640281677
aF1721.7695980072021
aF1722.7735941410065
aF1723.7774450778961
aF1724.7813379764557
aF1725.7853939533234
aF1726.7891840934753
aF1727.793261051178
aF1728.7970170974731
aF1729.8006629943848
aF1730.8048679828644
aF1731.8088090419769
aF1732.8125910758972
aF1733.816682100296
aF1734.8205211162567
aF1735.8244650363922
aF1736.8283910751343
aF1737.8322999477386
aF1738.8362231254578
aF1739.8401410579681
aF1740.844071149826
aF1741.8480260372162
aF1742.8519101142883
aF1743.8558421134949
aF1744.8597531318665
aF1745.863667011261
aF1746.8675880432129
aF1747.8711731433868
aF1748.875433921814
aF1749.8793499469757
aF1750.8832719326019
aF1751.887195110321
aF1752.8911190032959
aF1753.8947551250458
aF1754.8989570140839
aF1755.9028830528259
aF1756.9068009853363
aF1757.9107251167297
aF1758.9146540164948
aF1759.9185659885406
aF1760.9224851131439
aF1761.9264070987701
aF1762.9303381443024
aF1763.9336810112
aF1764.9371659755707
aF1765.9401800632477
aF1766.9440109729767
aF1767.9479310512543
aF1768.9518489837646
aF1769.9557950496674
aF1770.9596920013428
aF1771.9636220932007
aF1772.9675331115723
aF1773.9714560508728
aF1774.9753770828247
aF1775.9792981147766
aF1776.9832220077515
aF1777.9871780872345
aF1778.9910600185394
aF1779.9949769973755
aF1780.9988989830017
aF1782.0028240680695
aF1783.00674700737
aF1784.010684967041
aF1785.0145919322968
aF1786.018501996994
aF1787.0221469402313
aF1788.0263600349426
aF1789.0302929878235
aF1790.034196138382
aF1791.0381319522858
aF1792.0416131019592
aF1793.0449590682983
aF1794.0488741397858
aF1795.0527899265289
aF1796.0567140579224
aF1797.0606379508972
aF1798.064651966095
aF1799.0685069561005
aF1800.0723991394043
aF1801.075767993927
aF1802.0792429447174
aF1803.083172082901
aF1804.0870821475983
aF1805.091001033783
aF1806.0949280261993
aF1807.0988430976868
aF1808.102765083313
aF1809.1066880226135
aF1810.1106181144714
aF1811.1145350933075
aF1812.1184630393982
aF1813.1226861476898
aF1814.1263029575348
aF1815.1302180290222
aF1816.1341409683228
aF1817.1380679607391
aF1818.1419849395752
aF1819.1459050178528
aF1820.1498241424561
aF1821.1537439823151
aF1822.157665014267
aF1823.1615869998932
aF1824.1655080318451
aF1825.1694300174713
aF1826.1733500957489
aF1827.1772720813751
aF1828.1806631088257
aF1829.1841220855713
aF1830.1880431175232
aF1831.1919910907745
aF1832.1958749294281
aF1833.1997971534729
aF1834.2037179470062
aF1835.2076621055603
aF1836.2115881443024
aF1837.2154850959778
aF1838.2194020748138
aF1839.2233231067657
aF1840.2267229557037
aF1841.2301549911499
aF1842.2340769767761
aF1843.2379951477051
aF1844.2419140338898
aF1845.2458400726318
aF1846.2497770786285
aF1847.253692150116
aF1848.2566499710083
aF1849.2605309486389
aF1850.2644519805908
aF1851.2683811187744
aF1852.272087097168
aF1853.2762169837952
aF1854.2801351547241
aF1855.2840559482574
aF1856.2879841327667
aF1857.2919070720673
aF1858.2958300113678
aF1859.2997491359711
aF1860.3036670684814
aF1861.3067071437836
aF1862.310506105423
aF1863.3144271373749
aF1864.3183500766754
aF1865.3222670555115
aF1866.3260531425476
aF1867.3301019668579
aF1868.3340210914612
aF1869.3379399776459
aF1870.3418619632721
aF1871.3457851409912
aF1872.3497130870819
aF1873.3536269664764
aF1874.356644153595
aF1875.3602640628815
aF1876.3638210296631
aF1877.3673119544983
aF1878.3712351322174
aF1879.3751549720764
aF1880.3790740966797
aF1881.3829979896545
aF1882.3867039680481
aF1883.3901879787445
aF1884.3937611579895
aF1885.3968391418457
aF1886.4006021022797
aF1887.4045240879059
aF1888.4084420204163
aF1889.4123640060425
aF1890.416020154953
aF1891.4202129840851
aF1892.4241271018982
aF1893.4280481338501
aF1894.4319679737091
aF1895.4358880519867
aF1896.4398181438446
aF1897.4437320232391
aF1898.447653055191
aF1899.4515759944916
aF1900.4554951190948
aF1901.4594171047211
aF1902.4633369445801
aF1903.4667141437531
aF1904.4701681137085
aF1905.4741079807281
aF1906.478019952774
aF1907.4819431304932
aF1908.484955072403
aF1909.488785982132
aF1910.4927079677582
aF1911.4966239929199
aF1912.5005431175232
aF1913.504467010498
aF1914.5083911418915
aF1915.5123109817505
aF1916.5162301063538
aF1917.5202069282532
aF1918.5240731239319
aF1919.5280010700226
aF1920.5311779975891
aF1921.5348370075226
aF1922.5387570858002
aF1923.5426869392395
aF1924.5466110706329
aF1925.5505180358887
aF1926.5544390678406
aF1927.5583679676056
aF1928.5622799396515
aF1929.5662050247192
aF1930.5701229572296
aF1931.5740489959717
aF1932.5779659748077
aF1933.581885099411
aF1934.5858130455017
aF1935.5897259712219
aF1936.593652009964
aF1937.5975830554962
aF1938.6007609367371
aF1939.6036560535431
aF1940.6073369979858
aF1941.6112549304962
aF1942.615177154541
aF1943.6185359954834
aF1944.6215860843658
aF1945.624391078949
aF1946.6278591156006
aF1947.6317830085754
aF1948.6356990337372
aF1949.6396219730377
aF1950.6435420513153
aF1951.6474630832672
aF1952.6513829231262
aF1953.6553070545197
aF1954.6592290401459
aF1955.6631479263306
aF1956.6670701503754
aF1957.6709930896759
aF1958.6749179363251
aF1959.6788370609283
aF1960.6827540397644
aF1961.6868181228638
aF1962.690603017807
aF1963.6940150260925
aF1964.6974351406097
aF1965.7013599872589
aF1966.7052869796753
aF1967.7092051506042
aF1968.7131199836731
aF1969.7173171043396
aF1970.7210040092468
aF1971.7248930931091
aF1972.7288019657135
aF1973.7327220439911
aF1974.7359399795532
aF1975.7390611171722
aF1976.7424831390381
aF1977.7464029788971
aF1978.7500259876251
aF1979.7542500495911
aF1980.7581639289856
aF1981.7620830535889
aF1982.7660059928894
aF1983.7699279785156
aF1984.7732949256897
aF1985.7767760753632
aF1986.7806890010834
aF1987.7846109867096
aF1988.7885320186615
aF1989.7924540042877
aF1990.796373128891
aF1991.800302028656
aF1992.8042180538177
aF1993.8081350326538
aF1994.8120589256287
aF1995.8159780502319
aF1996.8199000358582
aF1997.8238229751587
aF1998.827819108963
aF1999.8318140506744
aF2000.8355851173401
aF2001.8395020961761
aF2002.8434309959412
aF2003.8473479747772
aF2004.8512661457062
aF2005.8551881313324
aF2006.8591101169586
aF2007.8630311489105
aF2008.8669519424438
aF2009.8708851337433
aF2010.8747999668121
aF2011.8787250518799
aF2012.8826570510864
aF2013.88560795784
aF2014.8894829750061
aF2015.8934030532837
aF2016.8973209857941
aF2017.901251077652
aF2018.905168056488
aF2019.9081969261169
aF2020.9120140075684
aF2021.9159300327301
aF2022.9198501110077
aF2023.9237730503082
aF2024.9276959896088
aF2025.9316129684448
aF2026.9355320930481
aF2027.9394631385803
aF2028.9433779716492
aF2029.9472980499268
aF2030.951220035553
aF2031.9551420211792
aF2032.9590549468994
aF2033.9630129337311
aF2034.9669070243835
aF2035.9708321094513
aF2036.9747519493103
aF2037.9786810874939
aF2038.9826340675354
aF2039.9856879711151
aF2040.98943400383
aF2041.9932849407196
aF2042.9972779750824
aF2044.0011940002441
aF2045.0051140785217
aF2046.0090401172638
aF2047.012964963913
aF2048.016891002655
aF2049.0208101272583
aF2050.0267629623413
aF2051.030709028244
aF2052.0345630645752
aF2053.0384790897369
aF2054.0424001216888
aF2055.0463221073151
aF2056.0493199825287
aF2057.0531611442566
aF2058.0570859909058
aF2059.0609381198883
aF2060.0645070075989
aF2061.0688560009003
aF2062.0728001594543
aF2063.0766921043396
aF2064.0806119441986
aF2065.0845379829407
aF2066.0884561538696
aF2067.0923781394958
aF2068.0962979793549
aF2069.1002149581909
aF2070.1041390895844
aF2071.1080651283264
aF2072.1119840145111
aF2073.1159031391144
aF2074.1198580265045
aF2075.1237421035767
aF2076.1276650428772
aF2077.1315851211548
aF2078.1355049610138
aF2079.139436006546
aF2080.1433570384979
aF2081.1471049785614
aF2082.1511900424957
aF2083.1551620960236
aF2084.1591031551361
aF2085.1629559993744
aF2086.1668779850006
aF2087.1707990169525
aF2088.1747190952301
aF2089.1786460876465
aF2090.1815900802612
aF2091.1854810714722
aF2092.1894710063934
aF2093.1933619976044
aF2094.1972489356995
aF2095.201180934906
aF2096.2050981521606
aF2097.2090051174164
aF2098.2129271030426
aF2099.2168469429016
aF2100.220782995224
asS'ctl_val'
p6
F191.25
sS't_stop'
p7
F2100
sS'pwm_period'
p8
F1
sS't_on'
p9
F100
sS'dt'
p10
F1
sS'ctl_list'
p11
(lp12
F0
aF0
aF0
aF0
aF0
aF0
aF0
aF0
aF0
aF0
aF0
aF0
aF0
aF0
aF0
aF0
aF0
aF0
aF0
aF0
aF0
aF0
aF0
aF0
aF0
aF0
aF0
aF0
aF0
aF0
aF0
aF0
aF0
aF0
aF0
aF0
aF0
aF0
aF0
aF0
aF0
aF0
aF0
aF0
aF0
aF0
aF0
aF0
aF0
aF0
aF0
aF0
aF0
aF0
aF0
aF0
aF0
aF0
aF0
aF0
aF0
aF0
aF0
aF0
aF0
aF0
aF0
aF0
aF0
aF0
aF0
aF0
aF0
aF0
aF0
aF0
aF0
aF0
aF0
aF0
aF0
aF0
aF0
aF0
aF0
aF0
aF0
aF0
aF0
aF0
aF0
aF0
aF0
aF0
aF0
aF0
aF0
aF0
aF0
aF0
aF0
aF191.25
aF191.25
aF191.25
aF191.25
aF191.25
aF191.25
aF191.25
aF191.25
aF191.25
aF191.25
aF191.25
aF191.25
aF191.25
aF191.25
aF191.25
aF191.25
aF191.25
aF191.25
aF191.25
aF191.25
aF191.25
aF191.25
aF191.25
aF191.25
aF191.25
aF191.25
aF191.25
aF191.25
aF191.25
aF191.25
aF191.25
aF191.25
aF191.25
aF191.25
aF191.25
aF191.25
aF191.25
aF191.25
aF191.25
aF191.25
aF191.25
aF191.25
aF191.25
aF191.25
aF191.25
aF191.25
aF191.25
aF191.25
aF191.25
aF191.25
aF191.25
aF191.25
aF191.25
aF191.25
aF191.25
aF191.25
aF191.25
aF191.25
aF191.25
aF191.25
aF191.25
aF191.25
aF191.25
aF191.25
aF191.25
aF191.25
aF191.25
aF191.25
aF191.25
aF191.25
aF191.25
aF191.25
aF191.25
aF191.25
aF191.25
aF191.25
aF191.25
aF191.25
aF191.25
aF191.25
aF191.25
aF191.25
aF191.25
aF191.25
aF191.25
aF191.25
aF191.25
aF191.25
aF191.25
aF191.25
aF191.25
aF191.25
aF191.25
aF191.25
aF191.25
aF191.25
aF191.25
aF191.25
aF191.25
aF191.25
aF191.25
aF191.25
aF191.25
aF191.25
aF191.25
aF191.25
aF191.25
aF191.25
aF191.25
aF191.25
aF191.25
aF191.25
aF191.25
aF191.25
aF191.25
aF191.25
aF191.25
aF191.25
aF191.25
aF191.25
aF191.25
aF191.25
aF191.25
aF191.25
aF191.25
aF191.25
aF191.25
aF191.25
aF191.25
aF191.25
aF191.25
aF191.25
aF191.25
aF191.25
aF191.25
aF191.25
aF191.25
aF191.25
aF191.25
aF191.25
aF191.25
aF191.25
aF191.25
aF191.25
aF191.25
aF191.25
aF191.25
aF191.25
aF191.25
aF191.25
aF191.25
aF191.25
aF191.25
aF191.25
aF191.25
aF191.25
aF191.25
aF191.25
aF191.25
aF191.25
aF191.25
aF191.25
aF191.25
aF191.25
aF191.25
aF191.25
aF191.25
aF191.25
aF191.25
aF191.25
aF191.25
aF191.25
aF191.25
aF191.25
aF191.25
aF191.25
aF191.25
aF191.25
aF191.25
aF191.25
aF191.25
aF191.25
aF191.25
aF191.25
aF191.25
aF191.25
aF191.25
aF191.25
aF191.25
aF191.25
aF191.25
aF191.25
aF191.25
aF191.25
aF191.25
aF191.25
aF191.25
aF191.25
aF191.25
aF191.25
aF191.25
aF191.25
aF191.25
aF191.25
aF191.25
aF191.25
aF191.25
aF191.25
aF191.25
aF191.25
aF191.25
aF191.25
aF191.25
aF191.25
aF191.25
aF191.25
aF191.25
aF191.25
aF191.25
aF191.25
aF191.25
aF191.25
aF191.25
aF191.25
aF191.25
aF191.25
aF191.25
aF191.25
aF191.25
aF191.25
aF191.25
aF191.25
aF191.25
aF191.25
aF191.25
aF191.25
aF191.25
aF191.25
aF191.25
aF191.25
aF191.25
aF191.25
aF191.25
aF191.25
aF191.25
aF191.25
aF191.25
aF191.25
aF191.25
aF191.25
aF191.25
aF191.25
aF191.25
aF191.25
aF191.25
aF191.25
aF191.25
aF191.25
aF191.25
aF191.25
aF191.25
aF191.25
aF191.25
aF191.25
aF191.25
aF191.25
aF191.25
aF191.25
aF191.25
aF191.25
aF191.25
aF191.25
aF191.25
aF191.25
aF191.25
aF191.25
aF191.25
aF191.25
aF191.25
aF191.25
aF191.25
aF191.25
aF191.25
aF191.25
aF191.25
aF191.25
aF191.25
aF191.25
aF191.25
aF191.25
aF191.25
aF191.25
aF191.25
aF191.25
aF191.25
aF191.25
aF191.25
aF191.25
aF191.25
aF191.25
aF191.25
aF191.25
aF191.25
aF191.25
aF191.25
aF191.25
aF191.25
aF191.25
aF191.25
aF191.25
aF191.25
aF191.25
aF191.25
aF191.25
aF191.25
aF191.25
aF191.25
aF191.25
aF191.25
aF191.25
aF191.25
aF191.25
aF191.25
aF191.25
aF191.25
aF191.25
aF191.25
aF191.25
aF191.25
aF191.25
aF191.25
aF191.25
aF191.25
aF191.25
aF191.25
aF191.25
aF191.25
aF191.25
aF191.25
aF191.25
aF191.25
aF191.25
aF191.25
aF191.25
aF191.25
aF191.25
aF191.25
aF191.25
aF191.25
aF191.25
aF191.25
aF191.25
aF191.25
aF191.25
aF191.25
aF191.25
aF191.25
aF191.25
aF191.25
aF191.25
aF191.25
aF191.25
aF191.25
aF191.25
aF191.25
aF191.25
aF191.25
aF191.25
aF191.25
aF191.25
aF191.25
aF191.25
aF191.25
aF191.25
aF191.25
aF191.25
aF191.25
aF191.25
aF191.25
aF191.25
aF191.25
aF191.25
aF191.25
aF191.25
aF191.25
aF191.25
aF191.25
aF191.25
aF191.25
aF191.25
aF191.25
aF191.25
aF191.25
aF191.25
aF191.25
aF191.25
aF191.25
aF191.25
aF191.25
aF191.25
aF191.25
aF191.25
aF191.25
aF191.25
aF191.25
aF191.25
aF191.25
aF191.25
aF191.25
aF191.25
aF191.25
aF191.25
aF191.25
aF191.25
aF191.25
aF191.25
aF191.25
aF191.25
aF191.25
aF191.25
aF191.25
aF191.25
aF191.25
aF191.25
aF191.25
aF191.25
aF191.25
aF191.25
aF191.25
aF191.25
aF191.25
aF191.25
aF191.25
aF191.25
aF191.25
aF191.25
aF191.25
aF191.25
aF191.25
aF191.25
aF191.25
aF191.25
aF191.25
aF191.25
aF191.25
aF191.25
aF191.25
aF191.25
aF191.25
aF191.25
aF191.25
aF191.25
aF191.25
aF191.25
aF191.25
aF191.25
aF191.25
aF191.25
aF191.25
aF191.25
aF191.25
aF191.25
aF191.25
aF191.25
aF191.25
aF191.25
aF191.25
aF191.25
aF191.25
aF191.25
aF191.25
aF191.25
aF191.25
aF191.25
aF191.25
aF191.25
aF191.25
aF191.25
aF191.25
aF191.25
aF191.25
aF191.25
aF191.25
aF191.25
aF191.25
aF191.25
aF191.25
aF191.25
aF191.25
aF191.25
aF191.25
aF191.25
aF191.25
aF191.25
aF191.25
aF191.25
aF191.25
aF191.25
aF191.25
aF191.25
aF191.25
aF191.25
aF191.25
aF191.25
aF191.25
aF191.25
aF191.25
aF191.25
aF191.25
aF191.25
aF191.25
aF191.25
aF191.25
aF191.25
aF191.25
aF191.25
aF191.25
aF191.25
aF191.25
aF191.25
aF191.25
aF191.25
aF191.25
aF191.25
aF191.25
aF191.25
aF191.25
aF191.25
aF191.25
aF191.25
aF191.25
aF191.25
aF191.25
aF191.25
aF191.25
aF191.25
aF191.25
aF191.25
aF191.25
aF191.25
aF191.25
aF191.25
aF191.25
aF191.25
aF191.25
aF191.25
aF191.25
aF191.25
aF191.25
aF191.25
aF191.25
aF191.25
aF191.25
aF191.25
aF191.25
aF191.25
aF191.25
aF191.25
aF191.25
aF191.25
aF191.25
aF191.25
aF191.25
aF191.25
aF191.25
aF191.25
aF191.25
aF191.25
aF191.25
aF191.25
aF191.25
aF191.25
aF191.25
aF191.25
aF191.25
aF191.25
aF191.25
aF191.25
aF191.25
aF191.25
aF191.25
aF191.25
aF191.25
aF191.25
aF191.25
aF191.25
aF191.25
aF191.25
aF191.25
aF191.25
aF191.25
aF191.25
aF191.25
aF191.25
aF191.25
aF191.25
aF191.25
aF191.25
aF191.25
aF191.25
aF191.25
aF191.25
aF191.25
aF191.25
aF191.25
aF191.25
aF191.25
aF191.25
aF191.25
aF191.25
aF191.25
aF191.25
aF191.25
aF191.25
aF191.25
aF191.25
aF191.25
aF191.25
aF191.25
aF191.25
aF191.25
aF191.25
aF191.25
aF191.25
aF191.25
aF191.25
aF191.25
aF191.25
aF191.25
aF191.25
aF191.25
aF191.25
aF191.25
aF191.25
aF191.25
aF191.25
aF191.25
aF191.25
aF191.25
aF191.25
aF191.25
aF191.25
aF191.25
aF191.25
aF191.25
aF191.25
aF191.25
aF191.25
aF191.25
aF191.25
aF191.25
aF191.25
aF191.25
aF191.25
aF191.25
aF191.25
aF191.25
aF191.25
aF191.25
aF191.25
aF191.25
aF191.25
aF191.25
aF191.25
aF191.25
aF191.25
aF191.25
aF191.25
aF191.25
aF191.25
aF191.25
aF191.25
aF191.25
aF191.25
aF191.25
aF191.25
aF191.25
aF191.25
aF191.25
aF191.25
aF191.25
aF191.25
aF191.25
aF191.25
aF191.25
aF191.25
aF191.25
aF191.25
aF191.25
aF191.25
aF191.25
aF191.25
aF191.25
aF191.25
aF191.25
aF191.25
aF191.25
aF191.25
aF191.25
aF191.25
aF191.25
aF191.25
aF191.25
aF191.25
aF191.25
aF191.25
aF191.25
aF191.25
aF191.25
aF191.25
aF191.25
aF191.25
aF191.25
aF191.25
aF191.25
aF191.25
aF191.25
aF191.25
aF191.25
aF191.25
aF191.25
aF191.25
aF191.25
aF191.25
aF191.25
aF191.25
aF191.25
aF191.25
aF191.25
aF191.25
aF191.25
aF191.25
aF191.25
aF191.25
aF191.25
aF191.25
aF191.25
aF191.25
aF191.25
aF191.25
aF191.25
aF191.25
aF191.25
aF191.25
aF191.25
aF191.25
aF191.25
aF191.25
aF191.25
aF191.25
aF191.25
aF191.25
aF191.25
aF191.25
aF191.25
aF191.25
aF191.25
aF191.25
aF191.25
aF191.25
aF191.25
aF191.25
aF191.25
aF191.25
aF191.25
aF191.25
aF191.25
aF191.25
aF191.25
aF191.25
aF191.25
aF191.25
aF191.25
aF191.25
aF191.25
aF191.25
aF191.25
aF191.25
aF191.25
aF191.25
aF191.25
aF191.25
aF191.25
aF191.25
aF191.25
aF191.25
aF191.25
aF191.25
aF191.25
aF191.25
aF191.25
aF191.25
aF191.25
aF191.25
aF191.25
aF191.25
aF191.25
aF191.25
aF191.25
aF191.25
aF191.25
aF191.25
aF191.25
aF191.25
aF191.25
aF191.25
aF191.25
aF191.25
aF191.25
aF191.25
aF191.25
aF191.25
aF191.25
aF191.25
aF191.25
aF191.25
aF191.25
aF191.25
aF191.25
aF191.25
aF191.25
aF191.25
aF191.25
aF191.25
aF191.25
aF191.25
aF191.25
aF191.25
aF191.25
aF191.25
aF191.25
aF191.25
aF191.25
aF191.25
aF191.25
aF191.25
aF191.25
aF191.25
aF191.25
aF191.25
aF191.25
aF191.25
aF191.25
aF191.25
aF191.25
aF191.25
aF191.25
aF191.25
aF191.25
aF191.25
aF191.25
aF191.25
aF191.25
aF191.25
aF191.25
aF191.25
aF191.25
aF191.25
aF191.25
aF191.25
aF191.25
aF191.25
aF191.25
aF191.25
aF191.25
aF191.25
aF191.25
aF191.25
aF191.25
aF191.25
aF191.25
aF191.25
aF191.25
aF191.25
aF191.25
aF191.25
aF191.25
aF191.25
aF191.25
aF191.25
aF191.25
aF191.25
aF191.25
aF191.25
aF191.25
aF191.25
aF191.25
aF191.25
aF191.25
aF191.25
aF191.25
aF191.25
aF191.25
aF191.25
aF191.25
aF191.25
aF191.25
aF191.25
aF191.25
aF191.25
aF191.25
aF191.25
aF191.25
aF191.25
aF191.25
aF191.25
aF191.25
aF191.25
aF191.25
aF191.25
aF191.25
aF191.25
aF191.25
aF191.25
aF191.25
aF191.25
aF191.25
aF191.25
aF191.25
aF191.25
aF191.25
aF191.25
aF191.25
aF191.25
aF191.25
aF191.25
aF191.25
aF191.25
aF191.25
aF191.25
aF191.25
aF191.25
aF191.25
aF191.25
aF191.25
aF191.25
aF191.25
aF191.25
aF191.25
aF191.25
aF191.25
aF191.25
aF191.25
aF191.25
aF191.25
aF191.25
aF191.25
aF191.25
aF191.25
aF191.25
aF191.25
aF191.25
aF191.25
aF191.25
aF191.25
aF191.25
aF191.25
aF191.25
aF191.25
aF191.25
aF191.25
aF191.25
aF191.25
aF191.25
aF191.25
aF191.25
aF191.25
aF191.25
aF191.25
aF191.25
aF191.25
aF191.25
aF191.25
aF191.25
aF191.25
aF191.25
aF191.25
aF191.25
aF191.25
aF191.25
aF191.25
aF191.25
aF191.25
aF191.25
aF191.25
aF191.25
aF191.25
aF191.25
aF191.25
aF191.25
aF191.25
aF191.25
aF191.25
aF191.25
aF191.25
aF191.25
aF0
aF0
aF0
aF0
aF0
aF0
aF0
aF0
aF0
aF0
aF0
aF0
aF0
aF0
aF0
aF0
aF0
aF0
aF0
aF0
aF0
aF0
aF0
aF0
aF0
aF0
aF0
aF0
aF0
aF0
aF0
aF0
aF0
aF0
aF0
aF0
aF0
aF0
aF0
aF0
aF0
aF0
aF0
aF0
aF0
aF0
aF0
aF0
aF0
aF0
aF0
aF0
aF0
aF0
aF0
aF0
aF0
aF0
aF0
aF0
aF0
aF0
aF0
aF0
aF0
aF0
aF0
aF0
aF0
aF0
aF0
aF0
aF0
aF0
aF0
aF0
aF0
aF0
aF0
aF0
aF0
aF0
aF0
aF0
aF0
aF0
aF0
aF0
aF0
aF0
aF0
aF0
aF0
aF0
aF0
aF0
aF0
aF0
aF0
aF0
aF0
aF0
aF0
aF0
aF0
aF0
aF0
aF0
aF0
aF0
aF0
aF0
aF0
aF0
aF0
aF0
aF0
aF0
aF0
aF0
aF0
aF0
aF0
aF0
aF0
aF0
aF0
aF0
aF0
aF0
aF0
aF0
aF0
aF0
aF0
aF0
aF0
aF0
aF0
aF0
aF0
aF0
aF0
aF0
aF0
aF0
aF0
aF0
aF0
aF0
aF0
aF0
aF0
aF0
aF0
aF0
aF0
aF0
aF0
aF0
aF0
aF0
aF0
aF0
aF0
aF0
aF0
aF0
aF0
aF0
aF0
aF0
aF0
aF0
aF0
aF0
aF0
aF0
aF0
aF0
aF0
aF0
aF0
aF0
aF0
aF0
aF0
aF0
aF0
aF0
aF0
aF0
aF0
aF0
aF0
aF0
aF0
aF0
aF0
aF0
aF0
aF0
aF0
aF0
aF0
aF0
aF0
aF0
aF0
aF0
aF0
aF0
aF0
aF0
aF0
aF0
aF0
aF0
aF0
aF0
aF0
aF0
aF0
aF0
aF0
aF0
aF0
aF0
aF0
aF0
aF0
aF0
aF0
aF0
aF0
aF0
aF0
aF0
aF0
aF0
aF0
aF0
aF0
aF0
aF0
aF0
aF0
aF0
aF0
aF0
aF0
aF0
aF0
aF0
aF0
aF0
aF0
aF0
aF0
aF0
aF0
aF0
aF0
aF0
aF0
aF0
aF0
aF0
aF0
aF0
aF0
aF0
aF0
aF0
aF0
aF0
aF0
aF0
aF0
aF0
aF0
aF0
aF0
aF0
aF0
aF0
aF0
aF0
aF0
aF0
aF0
aF0
aF0
aF0
aF0
aF0
aF0
aF0
aF0
aF0
aF0
aF0
aF0
aF0
aF0
aF0
aF0
aF0
aF0
aF0
aF0
aF0
aF0
aF0
aF0
aF0
aF0
aF0
aF0
aF0
aF0
aF0
aF0
aF0
aF0
aF0
aF0
aF0
aF0
aF0
aF0
aF0
aF0
aF0
aF0
aF0
aF0
aF0
aF0
aF0
aF0
aF0
aF0
aF0
aF0
aF0
aF0
aF0
aF0
aF0
aF0
aF0
aF0
aF0
aF0
aF0
aF0
aF0
aF0
aF0
aF0
aF0
aF0
aF0
aF0
aF0
aF0
aF0
aF0
aF0
aF0
aF0
aF0
aF0
aF0
aF0
aF0
aF0
aF0
aF0
aF0
aF0
aF0
aF0
aF0
aF0
aF0
aF0
aF0
aF0
aF0
aF0
aF0
aF0
aF0
aF0
aF0
aF0
aF0
aF0
aF0
aF0
aF0
aF0
aF0
aF0
aF0
aF0
aF0
aF0
aF0
aF0
aF0
aF0
aF0
aF0
aF0
aF0
aF0
aF0
aF0
aF0
aF0
aF0
aF0
aF0
aF0
aF0
aF0
aF0
aF0
aF0
aF0
aF0
aF0
aF0
aF0
aF0
aF0
aF0
aF0
aF0
aF0
aF0
aF0
aF0
aF0
aF0
aF0
aF0
aF0
aF0
aF0
aF0
aF0
aF0
aF0
aF0
aF0
aF0
aF0
aF0
aF0
aF0
aF0
aF0
aF0
aF0
aF0
aF0
aF0
aF0
aF0
aF0
aF0
aF0
aF0
aF0
aF0
aF0
aF0
aF0
aF0
aF0
aF0
aF0
aF0
aF0
aF0
aF0
aF0
aF0
aF0
aF0
aF0
aF0
aF0
aF0
aF0
aF0
aF0
aF0
aF0
aF0
aF0
aF0
aF0
aF0
aF0
aF0
aF0
aF0
aF0
aF0
aF0
aF0
aF0
aF0
aF0
aF0
aF0
aF0
aF0
aF0
aF0
aF0
aF0
aF0
aF0
aF0
aF0
aF0
aF0
aF0
aF0
aF0
aF0
aF0
aF0
aF0
aF0
aF0
aF0
aF0
aF0
aF0
aF0
aF0
aF0
aF0
aF0
aF0
aF0
aF0
aF0
aF0
aF0
aF0
aF0
aF0
aF0
aF0
aF0
aF0
aF0
aF0
aF0
aF0
aF0
aF0
aF0
aF0
aF0
aF0
aF0
aF0
aF0
aF0
aF0
aF0
aF0
aF0
aF0
aF0
aF0
aF0
aF0
aF0
aF0
aF0
aF0
aF0
aF0
aF0
aF0
aF0
aF0
aF0
aF0
aF0
aF0
aF0
aF0
aF0
aF0
aF0
aF0
aF0
aF0
aF0
aF0
aF0
aF0
aF0
aF0
aF0
aF0
aF0
aF0
aF0
aF0
aF0
aF0
aF0
aF0
aF0
aF0
aF0
aF0
aF0
aF0
aF0
aF0
aF0
aF0
aF0
aF0
aF0
aF0
aF0
aF0
aF0
aF0
aF0
aF0
aF0
aF0
aF0
aF0
aF0
aF0
aF0
aF0
aF0
aF0
aF0
aF0
aF0
aF0
aF0
aF0
aF0
aF0
aF0
aF0
aF0
aF0
aF0
aF0
aF0
aF0
aF0
aF0
aF0
aF0
aF0
aF0
aF0
aF0
aF0
aF0
aF0
aF0
aF0
aF0
aF0
aF0
aF0
aF0
aF0
aF0
aF0
aF0
aF0
aF0
aF0
aF0
aF0
aF0
aF0
aF0
aF0
aF0
aF0
aF0
aF0
aF0
aF0
aF0
aF0
aF0
aF0
aF0
aF0
aF0
aF0
aF0
aF0
aF0
aF0
aF0
aF0
aF0
aF0
aF0
aF0
aF0
aF0
aF0
aF0
aF0
aF0
aF0
aF0
aF0
aF0
aF0
aF0
aF0
aF0
aF0
aF0
aF0
aF0
aF0
aF0
aF0
aF0
aF0
aF0
aF0
aF0
aF0
aF0
aF0
aF0
aF0
aF0
aF0
aF0
aF0
aF0
aF0
aF0
aF0
aF0
aF0
aF0
aF0
aF0
aF0
aF0
aF0
aF0
aF0
aF0
aF0
aF0
aF0
aF0
aF0
aF0
aF0
aF0
aF0
aF0
aF0
aF0
aF0
aF0
aF0
aF0
aF0
aF0
aF0
aF0
aF0
aF0
aF0
aF0
aF0
aF0
aF0
aF0
aF0
aF0
aF0
aF0
aF0
aF0
aF0
aF0
aF0
aF0
aF0
aF0
aF0
aF0
aF0
aF0
aF0
aF0
aF0
aF0
aF0
aF0
aF0
aF0
aF0
aF0
aF0
aF0
aF0
aF0
aF0
aF0
aF0
aF0
aF0
aF0
aF0
aF0
aF0
aF0
aF0
aF0
aF0
aF0
aF0
aF0
aF0
aF0
aF0
aF0
aF0
aF0
aF0
aF0
aF0
aF0
aF0
aF0
aF0
aF0
aF0
aF0
aF0
aF0
aF0
aF0
aF0
aF0
aF0
aF0
aF0
aF0
aF0
aF0
aF0
aF0
aF0
aF0
aF0
aF0
aF0
aF0
aF0
aF0
aF0
aF0
aF0
aF0
aF0
aF0
aF0
aF0
aF0
aF0
aF0
aF0
aF0
aF0
aF0
aF0
aF0
aF0
aF0
aF0
aF0
aF0
aF0
aF0
aF0
aF0
aF0
aF0
aF0
aF0
aF0
aF0
aF0
aF0
aF0
aF0
aF0
aF0
aF0
aF0
aF0
aF0
aF0
aF0
aF0
aF0
aF0
aF0
aF0
aF0
aF0
aF0
aF0
aF0
aF0
aF0
aF0
aF0
aF0
aF0
aF0
aF0
aF0
aF0
aF0
aF0
aF0
aF0
aF0
aF0
aF0
aF0
aF0
aF0
aF0
aF0
aF0
aF0
aF0
aF0
aF0
aF0
aF0
aF0
aF0
aF0
aF0
aF0
aF0
aF0
aF0
aF0
aF0
aF0
aF0
aF0
aF0
aF0
aF0
aF0
aF0
aF0
aF0
aF0
aF0
aF0
aF0
aF0
asS't_off'
p13
F1100
s.