(dp1
S'temp_list'
p2
(lp3
F26.11921654217009
aF20.698773125395896
aF20.206005542052786
aF20.452389333724341
aF20.206005542052786
aF20.698773125395896
aF20.452389333724341
aF20.698773125395896
aF20.698773125395896
aF20.452389333724341
aF21.191540708739009
aF20.698773125395896
aF20.698773125395896
aF20.698773125395896
aF20.698773125395896
aF20.698773125395896
aF20.698773125395896
aF20.698773125395896
aF20.698773125395896
aF20.698773125395896
aF21.191540708739009
aF20.698773125395896
aF20.698773125395896
aF21.191540708739009
aF20.698773125395896
aF20.698773125395896
aF21.191540708739009
aF20.698773125395896
aF21.191540708739009
aF21.191540708739009
aF20.698773125395896
aF21.191540708739009
aF21.191540708739009
aF21.191540708739009
aF21.191540708739009
aF20.698773125395896
aF22.423459667096775
aF21.191540708739009
aF21.191540708739009
aF21.191540708739009
aF21.191540708739009
aF21.191540708739009
aF21.191540708739009
aF22.423459667096775
aF22.423459667096775
aF21.191540708739009
aF21.191540708739009
aF22.423459667096775
aF21.191540708739009
aF21.191540708739009
aF21.191540708739009
aF22.423459667096775
aF22.423459667096775
aF21.191540708739009
aF21.191540708739009
aF21.191540708739009
aF22.423459667096775
aF21.191540708739009
aF21.191540708739009
aF22.423459667096775
aF22.423459667096775
aF22.423459667096775
aF22.423459667096775
aF22.423459667096775
aF21.191540708739009
aF22.423459667096775
aF22.423459667096775
aF22.423459667096775
aF22.423459667096775
aF22.423459667096775
aF22.423459667096775
aF22.423459667096775
aF22.423459667096775
aF22.423459667096775
aF21.191540708739009
aF22.423459667096775
aF22.423459667096775
aF21.191540708739009
aF22.423459667096775
aF22.423459667096775
aF22.423459667096775
aF21.191540708739009
aF22.423459667096775
aF22.423459667096775
aF22.423459667096775
aF21.191540708739009
aF22.423459667096775
aF22.423459667096775
aF22.423459667096775
aF22.423459667096775
aF22.423459667096775
aF22.423459667096775
aF22.423459667096775
aF22.423459667096775
aF22.423459667096775
aF22.423459667096775
aF22.423459667096775
aF22.423459667096775
aF22.423459667096775
aF22.423459667096775
aF22.423459667096775
aF22.423459667096775
aF22.423459667096775
aF22.423459667096775
aF22.423459667096775
aF22.423459667096775
aF22.423459667096775
aF22.423459667096775
aF22.423459667096775
aF22.423459667096775
aF22.423459667096775
aF22.423459667096775
aF22.423459667096775
aF22.423459667096775
aF22.423459667096775
aF23.408994833782995
aF23.408994833782995
aF24.39453000046921
aF24.640913792140765
aF26.11921654217009
aF26.11921654217009
aF27.35113550052786
aF28.583054458885638
aF30.30774100058651
aF31.786043750615839
aF32.032427542287387
aF34.003497875659825
aF35.974568209032263
aF38.192022334076249
aF39.670325084105571
aF40.902244042463352
aF43.11969816750733
aF46.076303667565988
aF47.061838834252207
aF48.786525375953083
aF51.003979500997069
aF53.960585001055719
aF55.931655334428157
aF57.656341876129041
aF59.873796001173019
aF61.844866334545458
aF63.569552876246341
aF65.540623209618758
aF67.511693542991196
aF69.72914766803521
aF71.453834209736073
aF73.424904543108511
aF75.888742459824059
aF78.59896416821114
aF80.323650709912016
aF81.309185876598249
aF83.280256209970688
aF85.497710335014659
aF87.468780668387097
aF89.193467210087974
aF91.410921335131974
aF95.353062001876836
aF95.353062001876836
aF97.077748543577727
aF99.048818876950151
aF101.26627300199414
aF102.74457575202345
aF103.97649471038125
aF106.19394883542522
aF107.42586779378298
aF109.15055433548387
aF111.12162466885631
aF112.84631121055719
aF114.57099775225808
aF117.03483566897361
aF118.02037083565983
aF119.00590600234604
aF120.73059254404693
aF122.45527908574782
aF122.94804666909091
aF124.91911700246335
aF126.39741975249268
aF127.62933871085045
aF129.84679283589441
aF130.58594421090908
aF132.80339833595306
aF133.78893350263928
aF134.52808487765392
aF135.51362004434014
aF137.73107416938419
aF138.71660933607041
aF140.68767966944282
aF140.68767966944282
aF142.16598241947213
aF142.41236621114368
aF141.67321483612903
aF144.38343654451612
aF146.35450687788855
aF146.84727446123165
aF148.57196100293254
aF150.54303133630498
aF150.54303133630498
aF151.28218271131965
aF152.26771787800587
aF154.48517200304985
aF154.48517200304985
aF156.45624233642226
aF157.44177750310848
aF158.18092887812315
aF158.18092887812315
aF158.18092887812315
aF160.15199921149556
aF161.38391816985339
aF162.12306954486803
aF162.12306954486803
aF164.34052366991205
aF164.34052366991205
aF165.81882641994136
aF166.06521021161291
aF167.05074537829913
aF168.03628054498532
aF169.26819950334308
aF170.2537346700293
aF170.2537346700293
aF170.50011846170088
aF172.22480500340174
aF172.22480500340174
aF174.19587533677418
aF174.19587533677418
aF174.93502671178885
aF175.67417808680352
aF175.92056187847507
aF177.15248083683284
aF177.89163221184751
aF177.89163221184751
aF180.10908633689149
aF180.10908633689149
aF182.08015667026393
aF182.08015667026393
aF182.08015667026393
aF182.32654046193548
aF182.81930804527858
aF183.80484321196479
aF183.80484321196479
aF185.03676217032256
aF186.02229733700881
aF186.02229733700881
aF186.26868112868036
aF187.99336767038125
aF189.96443800375366
aF189.96443800375366
aF189.96443800375366
aF189.96443800375366
aF190.21082179542523
aF191.68912454545455
aF191.68912454545455
aF193.41381108715544
aF193.66019487882699
aF193.66019487882699
aF194.15296246217008
aF195.87764900387094
aF195.87764900387094
aF196.86318417055716
aF197.35595175390029
aF197.60233554557183
aF198.58787071225802
aF198.58787071225802
aF199.57340587894427
aF201.29809242064516
aF201.79086000398826
aF201.79086000398826
aF202.0372437956598
aF203.7619303373607
aF203.7619303373607
aF203.7619303373607
aF203.7619303373607
aF203.7619303373607
aF204.74746550404689
aF205.24023308739004
aF205.48661687906159
aF205.48661687906159
aF205.48661687906159
aF206.47215204574778
aF207.45768721243402
aF208.68960617079176
aF209.18237375413489
aF209.42875754580643
aF209.18237375413489
aF209.42875754580643
aF211.64621167085042
aF211.64621167085042
aF211.64621167085042
aF211.64621167085042
aF211.64621167085042
aF213.61728200422286
aF213.61728200422286
aF213.61728200422286
aF213.61728200422286
aF214.3564333792375
aF215.34196854592375
aF215.34196854592375
aF215.34196854592375
aF215.34196854592375
aF215.34196854592375
aF215.34196854592375
aF217.06665508762458
aF217.55942267096773
aF217.55942267096773
aF219.53049300434017
aF219.53049300434017
aF219.53049300434017
aF220.51602817102636
aF221.50156333771261
aF221.50156333771261
aF221.50156333771261
aF221.50156333771261
aF221.50156333771261
aF221.50156333771261
aF221.50156333771261
aF221.50156333771261
aF221.50156333771261
aF221.50156333771261
aF220.51602817102636
aF219.53049300434017
aF219.53049300434017
aF217.55942267096773
aF217.55942267096773
aF216.57388750428149
aF215.34196854592375
aF214.3564333792375
aF213.61728200422286
aF212.63174683753661
aF211.64621167085042
aF211.64621167085042
aF209.92152512914953
aF209.18237375413489
aF207.45768721243402
aF207.21130342076248
aF205.48661687906159
aF205.24023308739004
aF203.7619303373607
aF203.7619303373607
aF201.79086000398826
aF200.80532483730207
aF199.57340587894427
aF197.60233554557183
aF197.60233554557183
aF196.86318417055716
aF195.87764900387094
aF193.66019487882699
aF191.68912454545455
aF191.442740753783
aF189.96443800375366
aF189.96443800375366
aF189.96443800375366
aF187.99336767038125
aF186.02229733700881
aF185.03676217032256
aF182.81930804527858
aF182.08015667026393
aF182.08015667026393
aF180.10908633689149
aF180.10908633689149
aF177.89163221184751
aF177.64524842017593
aF175.92056187847507
aF174.93502671178885
aF174.19587533677418
aF174.19587533677418
aF174.19587533677418
aF172.22480500340174
aF172.22480500340174
aF170.2537346700293
aF169.26819950334308
aF168.03628054498532
aF167.05074537829913
aF166.06521021161291
aF165.81882641994136
aF164.34052366991205
aF164.34052366991205
aF162.12306954486803
aF161.87668575319648
aF161.38391816985339
aF160.15199921149556
aF160.15199921149556
aF158.18092887812315
aF158.18092887812315
aF157.93454508645158
aF156.45624233642226
aF156.45624233642226
aF154.48517200304985
aF154.48517200304985
aF152.26771787800587
aF152.26771787800587
aF151.28218271131965
aF150.78941512797653
aF150.54303133630498
aF150.54303133630498
aF148.57196100293254
aF148.57196100293254
aF148.57196100293254
aF146.35450687788855
aF146.35450687788855
aF145.61535550287388
aF144.38343654451612
aF144.38343654451612
aF143.3979013778299
aF142.41236621114368
aF142.16598241947213
aF141.67321483612903
aF141.67321483612903
aF140.68767966944282
aF140.68767966944282
aF140.68767966944282
aF138.71660933607041
aF138.71660933607041
aF138.71660933607041
aF137.73107416938419
aF136.49915521102639
aF136.49915521102639
aF135.51362004434014
aF134.52808487765392
aF134.52808487765392
aF134.28170108598238
aF133.78893350263928
aF132.80339833595306
aF132.80339833595306
aF131.5714793775953
aF131.07871179425217
aF130.58594421090908
aF130.3395604192375
aF129.84679283589441
aF128.61487387753667
aF128.61487387753667
aF128.36849008586509
aF127.62933871085045
aF127.13657112750732
aF126.89018733583578
aF126.64380354416423
aF126.39741975249268
aF125.90465216914956
aF125.90465216914956
aF124.91911700246335
aF124.91911700246335
aF124.91911700246335
aF123.19443046076246
aF122.94804666909091
aF122.94804666909091
aF122.94804666909091
aF121.96251150240469
aF120.73059254404693
aF120.73059254404693
aF120.73059254404693
aF119.74505737736071
aF119.74505737736071
aF119.00590600234604
aF119.00590600234604
aF119.00590600234604
aF118.02037083565983
aF117.03483566897361
aF117.03483566897361
aF115.80291671061585
aF115.80291671061585
aF115.31014912727275
aF114.81738154392963
aF114.81738154392963
aF114.57099775225808
aF114.07823016891498
aF112.84631121055719
aF112.84631121055719
aF111.86077604387097
aF111.86077604387097
aF111.36800846052786
aF111.12162466885631
aF111.12162466885631
aF111.12162466885631
aF111.12162466885631
aF111.12162466885631
aF110.13608950217009
aF109.15055433548387
aF109.15055433548387
aF109.15055433548387
aF109.15055433548387
aF107.42586779378298
aF107.17948400211144
aF107.17948400211144
aF107.17948400211144
aF107.17948400211144
aF107.17948400211144
aF106.68671641876831
aF106.19394883542522
aF104.96202987706745
aF104.96202987706745
aF104.96202987706745
aF103.97649471038125
aF103.48372712703812
aF102.99095954369503
aF102.99095954369503
aF102.99095954369503
aF102.25180816868036
aF102.25180816868036
aF101.26627300199414
aF102.25180816868036
aF101.26627300199414
aF101.26627300199414
aF101.26627300199414
aF101.26627300199414
aF100.03435404363637
aF99.048818876950151
aF99.048818876950151
aF98.802435085278589
aF98.309667501935479
aF98.309667501935479
aF98.309667501935479
aF97.077748543577727
aF97.077748543577727
aF97.077748543577727
aF97.077748543577727
aF97.077748543577727
aF97.077748543577727
aF96.092213376891507
aF96.092213376891507
aF96.092213376891507
aF95.353062001876836
aF95.353062001876836
aF95.353062001876836
aF95.353062001876836
aF95.353062001876836
aF95.353062001876836
aF95.353062001876836
aF95.353062001876836
aF95.353062001876836
aF93.381991668504412
aF93.381991668504412
aF93.381991668504412
aF93.381991668504412
aF91.657305126803521
aF91.410921335131974
aF91.410921335131974
aF91.410921335131974
aF91.410921335131974
aF90.918153751788864
aF91.410921335131974
aF91.410921335131974
aF90.425386168445755
aF89.193467210087974
aF89.193467210087974
aF89.193467210087974
aF89.193467210087974
aF88.207932043401769
aF88.207932043401769
aF88.207932043401769
aF87.468780668387097
aF87.468780668387097
aF87.468780668387097
aF87.468780668387097
aF87.468780668387097
aF87.468780668387097
aF86.483245501700878
aF86.483245501700878
aF86.483245501700878
aF85.497710335014659
aF85.497710335014659
aF85.497710335014659
aF85.497710335014659
aF85.497710335014659
aF85.497710335014659
aF85.497710335014659
aF85.497710335014659
aF85.497710335014659
aF85.497710335014659
aF83.280256209970688
aF83.280256209970688
aF83.280256209970688
aF83.280256209970688
aF83.033872418299126
aF83.033872418299126
aF82.54110483495603
aF82.54110483495603
aF81.309185876598249
aF81.309185876598249
aF81.309185876598249
aF81.309185876598249
aF81.309185876598249
aF80.323650709912016
aF80.323650709912016
aF80.323650709912016
aF80.323650709912016
aF79.830883126568907
aF79.338115543225797
aF79.830883126568907
aF79.338115543225797
aF79.338115543225797
aF79.338115543225797
aF79.091731751554249
aF78.59896416821114
aF79.091731751554249
aF79.091731751554249
aF78.59896416821114
aF78.59896416821114
aF78.59896416821114
aF77.613429001524935
aF77.613429001524935
aF77.613429001524935
asS'time_list'
p4
(lp5
F0
aF1.0031380653381348
aF2.0070021152496338
aF3.0108859539031982
aF4.0148429870605469
aF5.0187649726867676
aF6.0226860046386719
aF7.0262229442596436
aF8.0296790599822998
aF9.0334551334381104
aF10.037367105484009
aF11.041291952133179
aF12.04521107673645
aF13.048818111419678
aF14.053056001663208
aF15.056975126266479
aF16.060894012451172
aF17.064816951751709
aF18.068740129470825
aF19.072662115097046
aF20.076580047607422
aF21.080498933792114
aF22.084419012069702
aF23.088340044021606
aF24.092287063598633
aF25.096168994903564
aF26.100114107131958
aF27.10402512550354
aF28.107941150665283
aF29.111865997314453
aF30.115787029266357
aF31.119709968566895
aF32.123638153076172
aF33.127551078796387
aF34.131471157073975
aF35.135390996932983
aF36.139315128326416
aF37.143234968185425
aF38.147154092788696
aF39.151077032089233
aF40.154996156692505
aF41.158918142318726
aF42.162842035293579
aF43.166761159896851
aF44.170715093612671
aF45.174603939056396
aF46.178524017333984
aF47.182446002960205
aF48.186362981796265
aF49.190286159515381
aF50.194206953048706
aF51.19812798500061
aF52.202049016952515
aF53.205969095230103
aF54.209891080856323
aF55.213827133178711
aF56.217752933502197
aF57.221655130386353
aF58.225574016571045
aF59.228737115859985
aF60.232419967651367
aF61.236345052719116
aF62.240258932113647
aF63.244176149368286
aF64.248098134994507
aF65.252018928527832
aF66.255943059921265
aF67.259863138198853
aF68.263818025588989
aF69.267706155776978
aF70.271625995635986
aF71.275551080703735
aF72.279469013214111
aF73.283400058746338
aF74.287317991256714
aF75.291232109069824
aF76.29485011100769
aF77.298676013946533
aF78.301996946334839
aF79.30591607093811
aF80.309869050979614
aF81.313766956329346
aF82.317675113677979
aF83.321598052978516
aF84.325540065765381
aF85.329442977905273
aF86.333359956741333
aF87.337285041809082
aF88.341202020645142
aF89.345124959945679
aF90.349045038223267
aF91.352740049362183
aF92.356886148452759
aF93.360808134078979
aF94.364732027053833
aF95.368649005889893
aF96.372575998306274
aF97.37649393081665
aF98.380409955978394
aF99.384330987930298
aF100.38825297355652
aF101.39511895179749
aF102.39909696578979
aF103.40302205085754
aF104.40694808959961
aF105.41085910797119
aF106.41478204727173
aF107.41869902610779
aF108.42262101173401
aF109.42654299736023
aF110.43046402931213
aF111.43438506126404
aF112.43830513954163
aF113.44222712516785
aF114.4461510181427
aF115.4500789642334
aF116.45399498939514
aF117.45791101455688
aF118.46184206008911
aF119.46575808525085
aF120.46967196464539
aF121.47359704971313
aF122.47751808166504
aF123.48143601417542
aF124.48473906517029
aF125.48827600479126
aF126.49219703674316
aF127.49611806869507
aF128.50004005432129
aF129.50396013259888
aF130.5078821182251
aF131.51180195808411
aF132.51572513580322
aF133.51965308189392
aF134.5235641002655
aF135.527498960495
aF136.53140807151794
aF137.53533005714417
aF138.53925204277039
aF139.54317998886108
aF140.54708909988403
aF141.55101299285889
aF142.55493903160095
aF143.5588550567627
aF144.56277704238892
aF145.5666971206665
aF146.57061696052551
aF147.57453799247742
aF148.57845997810364
aF149.58238506317139
aF150.58630108833313
aF151.59022903442383
aF152.59414601325989
aF153.59806513786316
aF154.60198402404785
aF155.60590505599976
aF156.60984110832214
aF157.61376214027405
aF158.61766815185547
aF159.62159013748169
aF160.62550806999207
aF161.6294310092926
aF162.63273096084595
aF163.63625192642212
aF164.64019393920898
aF165.64411306381226
aF166.64804196357727
aF167.6513659954071
aF168.65487694740295
aF169.65879893302917
aF170.66272592544556
aF171.66664409637451
aF172.67047500610352
aF173.67449402809143
aF174.67819499969482
aF175.68233609199524
aF176.68624711036682
aF177.6901741027832
aF178.6940860748291
aF179.69800901412964
aF180.70193004608154
aF181.70585012435913
aF182.70978403091431
aF183.71369099617004
aF184.71761202812195
aF185.72154092788696
aF186.72545409202576
aF187.72937512397766
aF188.7332980632782
aF189.73721694946289
aF190.74114108085632
aF191.7450590133667
aF192.74898505210876
aF193.75290203094482
aF194.75682306289673
aF195.76047301292419
aF196.76466512680054
aF197.76859593391418
aF198.77250599861145
aF199.77642703056335
aF200.78034615516663
aF201.78427004814148
aF202.78819394111633
aF203.79211401939392
aF204.79604315757751
aF205.79995393753052
aF206.80387401580811
aF207.80779504776001
aF208.81171894073486
aF209.8156361579895
aF210.81955504417419
aF211.8234760761261
aF212.82739901542664
aF213.83136105537415
aF214.83524012565613
aF215.83916592597961
aF216.84308195114136
aF217.84700298309326
aF218.85092401504517
aF219.85484600067139
aF220.85876798629761
aF221.86269307136536
aF222.86660695075989
aF223.87051296234131
aF224.87445116043091
aF225.87837600708008
aF226.88231801986694
aF227.88621306419373
aF228.89013814926147
aF229.89387106895447
aF230.89823198318481
aF231.901850938797
aF232.90582895278931
aF233.90974497795105
aF234.91366195678711
aF235.91758012771606
aF236.92073893547058
aF237.92442297935486
aF238.92834305763245
aF239.93226313591003
aF240.93618392944336
aF241.94010305404663
aF242.94402813911438
aF243.94794797897339
aF244.95187401771545
aF245.9557900428772
aF246.9597110748291
aF247.96287393569946
aF248.96654796600342
aF249.97048115730286
aF250.97439503669739
aF251.97831606864929
aF252.9822371006012
aF253.98615908622742
aF254.99008011817932
aF255.99399900436401
aF256.99792003631592
aF258.00184297561646
aF259.00577116012573
aF260.00968503952026
aF261.01360297203064
aF262.01752996444702
aF263.02073502540588
aF264.02436494827271
aF265.02829003334045
aF266.03220915794373
aF267.03617310523987
aF268.04005193710327
aF269.04397106170654
aF270.04789304733276
aF271.05182313919067
aF272.05573606491089
aF273.05965495109558
aF274.06358003616333
aF275.06749606132507
aF276.07141709327698
aF277.0753390789032
aF278.07926106452942
aF279.08317995071411
aF280.08710098266602
aF281.09102201461792
aF282.09494209289551
aF283.09886598587036
aF284.10278606414795
aF285.10671210289001
aF286.11062908172607
aF287.11454796791077
aF288.11847114562988
aF289.12238907814026
aF290.12631297111511
aF291.13023400306702
aF292.1341540813446
aF293.13807511329651
aF294.14199709892273
aF295.14591813087463
aF296.14984607696533
aF297.15376901626587
aF298.15767908096313
aF299.16160106658936
aF300.16552114486694
aF301.17138409614563
aF302.17536401748657
aF303.17928600311279
aF304.18320512771606
aF305.18712615966797
aF306.19104599952698
aF307.19496512413025
aF308.1988890171051
aF309.20281004905701
aF310.20673394203186
aF311.21065497398376
aF312.21457314491272
aF313.21852612495422
aF314.22241306304932
aF315.22633814811707
aF316.23025798797607
aF317.23417901992798
aF318.23809909820557
aF319.24201893806458
aF320.24593997001648
aF321.24986100196838
aF322.25379395484924
aF323.25770306587219
aF324.2616240978241
aF325.26554203033447
aF326.26946401596069
aF327.27338814735413
aF328.2773129940033
aF329.28122806549072
aF330.28514909744263
aF331.28907108306885
aF332.29299116134644
aF333.29691100120544
aF334.30083608627319
aF335.30473494529724
aF336.30867314338684
aF337.3125901222229
aF338.31651496887207
aF339.32043600082397
aF340.3243579864502
aF341.32827806472778
aF342.33219814300537
aF343.33612012863159
aF344.34004497528076
aF345.34395503997803
aF346.34788608551025
aF347.35180497169495
aF348.35572409629822
aF349.35967397689819
aF350.36356711387634
aF351.36748814582825
aF352.37040901184082
aF353.37433815002441
aF354.37827897071838
aF355.38235211372375
aF356.38610696792603
aF357.39001393318176
aF358.3939380645752
aF359.39785695075989
aF360.40178513526917
aF361.4056990146637
aF362.40962100028992
aF363.41355204582214
aF364.41746115684509
aF365.42138195037842
aF366.42530393600464
aF367.42922306060791
aF368.43314504623413
aF369.43706893920898
aF370.44098711013794
aF371.44490694999695
aF372.44882798194885
aF373.4517560005188
aF374.45566892623901
aF375.45959210395813
aF376.46351003646851
aF377.46743392944336
aF378.47135710716248
aF379.47527599334717
aF380.4792001247406
aF381.48311614990234
aF382.48703813552856
aF383.49095702171326
aF384.49488210678101
aF385.49880194664001
aF386.50272297859192
aF387.50664401054382
aF388.51056408882141
aF389.51448702812195
aF390.51840496063232
aF391.52232813835144
aF392.52625298500061
aF393.53016710281372
aF394.53409099578857
aF395.53800892829895
aF396.54193210601807
aF397.54585409164429
aF398.54978609085083
aF399.55369901657104
aF400.55673909187317
aF401.56053614616394
aF402.56445813179016
aF403.56837797164917
aF404.5723340511322
aF405.57619404792786
aF406.58014106750488
aF407.58406400680542
aF408.58798503875732
aF409.59191393852234
aF410.59592509269714
aF411.59974503517151
aF412.60366702079773
aF413.60758805274963
aF414.61150908470154
aF415.61543607711792
aF416.61935114860535
aF417.62327003479004
aF418.62719106674194
aF419.63111305236816
aF420.63503503799438
aF421.63895606994629
aF422.64287710189819
aF423.64679408073425
aF424.65071892738342
aF425.65463805198669
aF426.6585590839386
aF427.66248512268066
aF428.66640400886536
aF429.67032098770142
aF430.67424297332764
aF431.67816495895386
aF432.68208694458008
aF433.68601298332214
aF434.68992805480957
aF435.69384908676147
aF436.69777894020081
aF437.70169115066528
aF438.70560908317566
aF439.7095320224762
aF440.71345400810242
aF441.71737504005432
aF442.7212929725647
aF443.72521996498108
aF444.72914004325867
aF445.73305892944336
aF446.73698210716248
aF447.74090099334717
aF448.74474596977234
aF449.74877405166626
aF450.75266313552856
aF451.75658512115479
aF452.76050496101379
aF453.76442408561707
aF454.76835012435913
aF455.77226805686951
aF456.77619600296021
aF457.78011012077332
aF458.78402900695801
aF459.78818392753601
aF460.79187107086182
aF461.79579401016235
aF462.79971313476562
aF463.80363392829895
aF464.80756807327271
aF465.8114800453186
aF466.81539797782898
aF467.81931805610657
aF468.82324910163879
aF469.82715892791748
aF470.83108115196228
aF471.83499908447266
aF472.83892202377319
aF473.84284615516663
aF474.84676694869995
aF475.85068798065186
aF476.85460901260376
aF477.8578770160675
aF478.86144113540649
aF479.86536812782288
aF480.86929607391357
aF481.87321209907532
aF482.87713408470154
aF483.88108897209167
aF484.8849790096283
aF485.88889598846436
aF486.89281797409058
aF487.89673709869385
aF488.90065503120422
aF489.90457797050476
aF490.90849804878235
aF491.91242814064026
aF492.91634202003479
aF493.92026114463806
aF494.92418313026428
aF495.92810606956482
aF496.93202614784241
aF497.93594694137573
aF498.9398729801178
aF499.94378805160522
aF500.94770908355713
aF501.95163202285767
aF502.95555114746094
aF503.95949912071228
aF504.96339201927185
aF505.96731400489807
aF506.97123503684998
aF507.97515416145325
aF508.97907996177673
aF509.98299813270569
aF510.98692011833191
aF511.99083995819092
aF512.99476408958435
aF513.99868106842041
aF515.00260305404663
aF516.0065290927887
aF517.01044702529907
aF518.01436614990234
aF519.01828598976135
aF520.02220797538757
aF521.02613115310669
aF522.03005695343018
aF523.03397011756897
aF524.03789305686951
aF525.04182100296021
aF526.04474210739136
aF527.04866313934326
aF528.05257511138916
aF529.05650496482849
aF530.06041502952576
aF531.06433916091919
aF532.06825804710388
aF533.0721869468689
aF534.07610106468201
aF535.08001899719238
aF536.08395099639893
aF537.08786416053772
aF538.09178900718689
aF539.09571504592896
aF540.09962797164917
aF541.10354900360107
aF542.10746598243713
aF543.11138916015625
aF544.1153130531311
aF545.11925601959229
aF546.12315106391907
aF547.12707710266113
aF548.13099408149719
aF549.13492202758789
aF550.13883709907532
aF551.14275598526001
aF552.14667701721191
aF553.15060114860535
aF554.15452003479004
aF555.15941405296326
aF556.16336297988892
aF557.16728711128235
aF558.17275500297546
aF559.17612910270691
aF560.18004512786865
aF561.18396902084351
aF562.18789505958557
aF563.1918089389801
aF564.19574093818665
aF565.19966411590576
aF566.20357012748718
aF567.20749592781067
aF568.21142792701721
aF569.21533703804016
aF570.22173714637756
aF571.22516703605652
aF572.22908496856689
aF573.23300099372864
aF574.23693013191223
aF575.24084806442261
aF576.24477100372314
aF577.24869608879089
aF578.25261211395264
aF579.25658297538757
aF580.26046895980835
aF581.26438593864441
aF582.26730513572693
aF583.27122712135315
aF584.27514910697937
aF585.27906703948975
aF586.28298592567444
aF587.28689002990723
aF588.29083514213562
aF589.29475402832031
aF590.29867601394653
aF591.30259609222412
aF592.30651903152466
aF593.31044101715088
aF594.31436514854431
aF595.31827712059021
aF596.32220101356506
aF597.32612013816833
aF598.33004307746887
aF599.33396506309509
aF600.33788394927979
asS'ctl_val'
p6
F255
sS't_stop'
p7
F600
sS'pwm_period'
p8
F1
sS't_on'
p9
F100
sS'dt'
p10
F1
sS'ctl_list'
p11
(lp12
F0
aF0
aF0
aF0
aF0
aF0
aF0
aF0
aF0
aF0
aF0
aF0
aF0
aF0
aF0
aF0
aF0
aF0
aF0
aF0
aF0
aF0
aF0
aF0
aF0
aF0
aF0
aF0
aF0
aF0
aF0
aF0
aF0
aF0
aF0
aF0
aF0
aF0
aF0
aF0
aF0
aF0
aF0
aF0
aF0
aF0
aF0
aF0
aF0
aF0
aF0
aF0
aF0
aF0
aF0
aF0
aF0
aF0
aF0
aF0
aF0
aF0
aF0
aF0
aF0
aF0
aF0
aF0
aF0
aF0
aF0
aF0
aF0
aF0
aF0
aF0
aF0
aF0
aF0
aF0
aF0
aF0
aF0
aF0
aF0
aF0
aF0
aF0
aF0
aF0
aF0
aF0
aF0
aF0
aF0
aF0
aF0
aF0
aF0
aF0
aF0
aF255
aF255
aF255
aF255
aF255
aF255
aF255
aF255
aF255
aF255
aF255
aF255
aF255
aF255
aF255
aF255
aF255
aF255
aF255
aF255
aF255
aF255
aF255
aF255
aF255
aF255
aF255
aF255
aF255
aF255
aF255
aF255
aF255
aF255
aF255
aF255
aF255
aF255
aF255
aF255
aF255
aF255
aF255
aF255
aF255
aF255
aF255
aF255
aF255
aF255
aF255
aF255
aF255
aF255
aF255
aF255
aF255
aF255
aF255
aF255
aF255
aF255
aF255
aF255
aF255
aF255
aF255
aF255
aF255
aF255
aF255
aF255
aF255
aF255
aF255
aF255
aF255
aF255
aF255
aF255
aF255
aF255
aF255
aF255
aF255
aF255
aF255
aF255
aF255
aF255
aF255
aF255
aF255
aF255
aF255
aF255
aF255
aF255
aF255
aF255
aF255
aF255
aF255
aF255
aF255
aF255
aF255
aF255
aF255
aF255
aF255
aF255
aF255
aF255
aF255
aF255
aF255
aF255
aF255
aF255
aF255
aF255
aF255
aF255
aF255
aF255
aF255
aF255
aF255
aF255
aF255
aF255
aF255
aF255
aF255
aF255
aF255
aF255
aF255
aF255
aF255
aF255
aF255
aF255
aF255
aF255
aF255
aF255
aF255
aF255
aF255
aF255
aF255
aF255
aF255
aF255
aF255
aF255
aF255
aF255
aF255
aF255
aF255
aF255
aF255
aF255
aF255
aF255
aF255
aF255
aF255
aF255
aF255
aF255
aF255
aF255
aF255
aF255
aF255
aF255
aF255
aF255
aF255
aF255
aF255
aF255
aF255
aF255
aF255
aF255
aF255
aF255
aF255
aF255
aF255
aF255
aF255
aF255
aF255
aF0
aF0
aF0
aF0
aF0
aF0
aF0
aF0
aF0
aF0
aF0
aF0
aF0
aF0
aF0
aF0
aF0
aF0
aF0
aF0
aF0
aF0
aF0
aF0
aF0
aF0
aF0
aF0
aF0
aF0
aF0
aF0
aF0
aF0
aF0
aF0
aF0
aF0
aF0
aF0
aF0
aF0
aF0
aF0
aF0
aF0
aF0
aF0
aF0
aF0
aF0
aF0
aF0
aF0
aF0
aF0
aF0
aF0
aF0
aF0
aF0
aF0
aF0
aF0
aF0
aF0
aF0
aF0
aF0
aF0
aF0
aF0
aF0
aF0
aF0
aF0
aF0
aF0
aF0
aF0
aF0
aF0
aF0
aF0
aF0
aF0
aF0
aF0
aF0
aF0
aF0
aF0
aF0
aF0
aF0
aF0
aF0
aF0
aF0
aF0
aF0
aF0
aF0
aF0
aF0
aF0
aF0
aF0
aF0
aF0
aF0
aF0
aF0
aF0
aF0
aF0
aF0
aF0
aF0
aF0
aF0
aF0
aF0
aF0
aF0
aF0
aF0
aF0
aF0
aF0
aF0
aF0
aF0
aF0
aF0
aF0
aF0
aF0
aF0
aF0
aF0
aF0
aF0
aF0
aF0
aF0
aF0
aF0
aF0
aF0
aF0
aF0
aF0
aF0
aF0
aF0
aF0
aF0
aF0
aF0
aF0
aF0
aF0
aF0
aF0
aF0
aF0
aF0
aF0
aF0
aF0
aF0
aF0
aF0
aF0
aF0
aF0
aF0
aF0
aF0
aF0
aF0
aF0
aF0
aF0
aF0
aF0
aF0
aF0
aF0
aF0
aF0
aF0
aF0
aF0
aF0
aF0
aF0
aF0
aF0
aF0
aF0
aF0
aF0
aF0
aF0
aF0
aF0
aF0
aF0
aF0
aF0
aF0
aF0
aF0
aF0
aF0
aF0
aF0
aF0
aF0
aF0
aF0
aF0
aF0
aF0
aF0
aF0
aF0
aF0
aF0
aF0
aF0
aF0
aF0
aF0
aF0
aF0
aF0
aF0
aF0
aF0
aF0
aF0
aF0
aF0
aF0
aF0
aF0
aF0
aF0
aF0
aF0
aF0
aF0
aF0
aF0
aF0
aF0
aF0
aF0
aF0
aF0
aF0
aF0
aF0
aF0
aF0
aF0
aF0
aF0
aF0
aF0
aF0
aF0
aF0
aF0
aF0
aF0
aF0
aF0
aF0
aF0
aF0
aF0
aF0
aF0
aF0
aF0
aF0
aF0
aF0
aF0
aF0
aF0
aF0
aF0
aF0
aF0
asS't_off'
p13
F300
s.