(dp1
S'temp_list'
p2
(lp3
F26.11921654217009
aF26.11921654217009
aF26.11921654217009
aF26.11921654217009
aF26.11921654217009
aF26.11921654217009
aF26.11921654217009
aF26.11921654217009
aF26.11921654217009
aF26.11921654217009
aF26.11921654217009
aF26.11921654217009
aF26.11921654217009
aF26.11921654217009
aF26.11921654217009
aF26.11921654217009
aF26.11921654217009
aF26.11921654217009
aF26.11921654217009
aF26.11921654217009
aF26.11921654217009
aF26.11921654217009
aF26.11921654217009
aF26.11921654217009
aF26.11921654217009
aF26.11921654217009
aF26.11921654217009
aF26.11921654217009
aF26.11921654217009
aF26.11921654217009
aF26.11921654217009
aF26.11921654217009
aF26.11921654217009
aF26.11921654217009
aF26.11921654217009
aF27.35113550052786
aF26.11921654217009
aF26.11921654217009
aF26.11921654217009
aF26.11921654217009
aF26.11921654217009
aF26.11921654217009
aF26.11921654217009
aF26.11921654217009
aF26.11921654217009
aF26.11921654217009
aF26.11921654217009
aF26.611984125513199
aF26.11921654217009
aF26.11921654217009
aF26.11921654217009
aF27.35113550052786
aF26.11921654217009
aF26.11921654217009
aF26.11921654217009
aF26.11921654217009
aF26.11921654217009
aF26.11921654217009
aF26.11921654217009
aF26.11921654217009
aF26.11921654217009
aF26.11921654217009
aF26.11921654217009
aF26.11921654217009
aF26.11921654217009
aF26.11921654217009
aF26.11921654217009
aF26.11921654217009
aF26.11921654217009
aF26.11921654217009
aF26.11921654217009
aF26.11921654217009
aF26.11921654217009
aF26.11921654217009
aF26.11921654217009
aF26.11921654217009
aF26.11921654217009
aF26.11921654217009
aF26.11921654217009
aF26.11921654217009
aF26.11921654217009
aF26.11921654217009
aF26.11921654217009
aF26.11921654217009
aF26.11921654217009
aF26.11921654217009
aF26.11921654217009
aF26.11921654217009
aF26.11921654217009
aF26.11921654217009
aF26.11921654217009
aF26.11921654217009
aF26.11921654217009
aF27.35113550052786
aF26.11921654217009
aF26.11921654217009
aF26.11921654217009
aF26.11921654217009
aF26.11921654217009
aF26.11921654217009
aF26.11921654217009
aF28.583054458885638
aF28.336670667214079
aF25.133681375483871
aF24.39453000046921
aF26.11921654217009
aF28.336670667214079
aF26.11921654217009
aF24.640913792140765
aF26.11921654217009
aF29.075822042228747
aF28.336670667214079
aF26.11921654217009
aF24.640913792140765
aF27.84390308387097
aF30.30774100058651
aF28.336670667214079
aF26.11921654217009
aF28.336670667214079
aF32.032427542287387
aF32.525195125630496
aF31.29327616727273
aF31.29327616727273
aF33.75711408398827
aF38.192022334076249
aF36.467335792375366
aF35.974568209032263
aF36.467335792375366
aF39.916708875777125
aF44.105233334193549
aF44.105233334193549
aF44.105233334193549
aF46.076303667565988
aF48.786525375953083
aF49.772060542639295
aF51.496747084340178
aF51.496747084340178
aF55.931655334428157
aF55.931655334428157
aF57.656341876129041
aF59.873796001173019
aF61.844866334545458
aF63.323169084574779
aF63.569552876246341
aF65.540623209618758
aF67.511693542991196
aF69.72914766803521
aF71.453834209736073
aF71.946601793079182
aF73.424904543108511
aF75.642358668152497
aF77.613429001524935
aF79.338115543225797
aF80.323650709912016
aF82.54110483495603
aF83.773023793313797
aF86.483245501700878
aF87.468780668387097
aF88.207932043401769
aF89.193467210087974
aF91.410921335131974
aF93.381991668504412
aF95.353062001876836
aF95.353062001876836
aF97.077748543577727
aF98.802435085278589
aF100.03435404363637
aF101.26627300199414
aF102.74457575202345
aF103.97649471038125
aF103.97649471038125
aF104.96202987706745
aF107.17948400211144
aF109.15055433548387
aF110.13608950217009
aF111.12162466885631
aF111.12162466885631
aF114.81738154392963
aF114.81738154392963
aF112.84631121055719
aF115.31014912727275
aF119.25228979401761
aF120.73059254404693
aF119.25228979401761
aF119.00590600234604
aF120.73059254404693
aF125.90465216914956
aF123.19443046076246
aF124.91911700246335
aF125.90465216914956
aF126.64380354416423
aF127.62933871085045
aF128.61487387753667
aF129.84679283589441
aF130.58594421090908
aF131.5714793775953
aF132.80339833595306
aF133.78893350263928
aF134.28170108598238
aF135.51362004434014
aF136.49915521102639
aF137.73107416938419
aF138.71660933607041
aF138.71660933607041
aF138.96299312774195
aF140.68767966944282
aF140.68767966944282
aF141.67321483612903
aF142.41236621114368
aF142.41236621114368
aF142.41236621114368
aF144.13705275284457
aF144.38343654451612
aF146.10812308621701
aF146.35450687788855
aF146.35450687788855
aF148.57196100293254
aF148.57196100293254
aF148.57196100293254
aF150.54303133630498
aF150.54303133630498
aF150.54303133630498
aF150.54303133630498
aF151.28218271131965
aF152.26771787800587
aF152.26771787800587
aF153.49963683636363
aF154.48517200304985
aF156.45624233642226
aF156.45624233642226
aF156.45624233642226
aF157.44177750310848
aF157.93454508645158
aF158.18092887812315
aF158.18092887812315
aF158.18092887812315
aF158.18092887812315
aF159.16646404480935
aF160.15199921149556
aF160.15199921149556
aF160.15199921149556
aF160.15199921149556
aF161.38391816985339
aF162.12306954486803
aF162.12306954486803
aF162.12306954486803
aF162.12306954486803
aF163.10860471155425
aF166.06521021161291
aF165.32605883659824
aF162.61583712821115
aF165.32605883659824
aF166.06521021161291
aF166.557977794956
aF167.78989675331377
aF168.03628054498532
aF168.03628054498532
aF168.03628054498532
aF170.2537346700293
aF170.2537346700293
aF170.50011846170088
aF172.22480500340174
aF172.22480500340174
aF172.22480500340174
aF172.22480500340174
aF173.21034017008796
aF174.19587533677418
aF174.19587533677418
aF174.19587533677418
aF174.19587533677418
aF174.93502671178885
aF175.92056187847507
aF180.10908633689149
aF177.89163221184751
aF174.93502671178885
aF174.93502671178885
aF177.89163221184751
aF181.09462150357771
aF181.09462150357771
aF180.10908633689149
aF177.15248083683284
aF180.10908633689149
aF182.81930804527858
aF181.09462150357771
aF177.89163221184751
aF180.10908633689149
aF182.08015667026393
aF183.80484321196479
aF182.08015667026393
aF180.10908633689149
aF182.08015667026393
aF186.02229733700881
aF186.02229733700881
aF183.80484321196479
aF182.08015667026393
aF183.80484321196479
aF186.02229733700881
aF186.02229733700881
aF186.02229733700881
aF186.02229733700881
aF186.02229733700881
aF186.02229733700881
aF186.02229733700881
aF186.26868112868036
aF187.99336767038125
aF187.99336767038125
aF187.99336767038125
aF187.99336767038125
aF189.96443800375366
aF189.96443800375366
aF189.96443800375366
aF189.96443800375366
aF189.96443800375366
aF189.96443800375366
aF189.96443800375366
aF189.96443800375366
aF189.96443800375366
aF190.21082179542523
aF190.70358937876833
aF191.442740753783
aF190.70358937876833
aF191.68912454545455
aF191.68912454545455
aF192.92104350381231
aF192.92104350381231
aF193.41381108715544
aF193.41381108715544
aF193.66019487882699
aF193.66019487882699
aF194.15296246217008
aF194.6457300455132
aF195.87764900387094
aF195.87764900387094
aF195.87764900387094
aF195.87764900387094
aF195.87764900387094
aF196.86318417055716
aF195.87764900387094
aF196.86318417055716
aF196.86318417055716
aF197.35595175390029
aF197.35595175390029
aF197.35595175390029
aF197.60233554557183
aF197.60233554557183
aF197.60233554557183
aF197.60233554557183
aF197.60233554557183
aF198.58787071225802
aF199.32702208727272
aF198.09510312891493
aF198.09510312891493
aF198.58787071225802
aF199.57340587894427
aF199.57340587894427
aF199.57340587894427
aF199.57340587894427
aF200.06617346228737
aF200.80532483730207
aF200.80532483730207
aF201.79086000398826
aF201.79086000398826
aF201.79086000398826
aF201.79086000398826
aF201.79086000398826
aF202.0372437956598
aF202.5300113790029
aF203.7619303373607
aF203.7619303373607
aF203.7619303373607
aF203.7619303373607
aF203.7619303373607
aF203.7619303373607
aF204.74746550404689
aF204.74746550404689
aF203.7619303373607
aF203.7619303373607
aF203.7619303373607
aF203.7619303373607
aF203.7619303373607
aF204.74746550404689
aF204.74746550404689
aF205.24023308739004
aF204.74746550404689
aF204.74746550404689
aF205.24023308739004
aF205.24023308739004
aF205.24023308739004
aF205.48661687906159
aF205.48661687906159
aF206.47215204574778
aF206.47215204574778
aF206.47215204574778
aF207.21130342076248
aF207.45768721243402
aF207.45768721243402
aF207.21130342076248
aF207.21130342076248
aF206.47215204574778
aF206.47215204574778
aF207.45768721243402
aF207.45768721243402
aF207.45768721243402
aF207.95045479577712
aF208.68960617079176
aF209.18237375413489
aF209.18237375413489
aF209.42875754580643
aF209.42875754580643
aF209.42875754580643
aF209.42875754580643
aF209.42875754580643
aF209.42875754580643
aF209.42875754580643
aF209.42875754580643
aF209.92152512914953
aF209.42875754580643
aF209.42875754580643
aF209.42875754580643
aF209.42875754580643
aF211.64621167085042
aF211.64621167085042
aF211.64621167085042
aF210.41429271249265
aF211.64621167085042
aF211.64621167085042
aF211.64621167085042
aF211.64621167085042
aF211.64621167085042
aF211.64621167085042
aF212.63174683753661
aF212.63174683753661
aF212.63174683753661
aF212.63174683753661
aF212.63174683753661
aF213.61728200422286
aF213.61728200422286
aF213.61728200422286
aF213.61728200422286
aF213.61728200422286
aF213.61728200422286
aF213.61728200422286
aF213.61728200422286
aF213.61728200422286
aF213.61728200422286
aF213.61728200422286
aF213.61728200422286
aF214.3564333792375
aF214.3564333792375
aF213.86366579589441
aF214.3564333792375
aF213.61728200422286
aF213.61728200422286
aF213.61728200422286
aF213.61728200422286
aF213.61728200422286
aF211.64621167085042
aF211.64621167085042
aF209.92152512914953
aF209.42875754580643
aF207.45768721243402
aF207.21130342076248
aF205.97938446240468
aF205.48661687906159
aF204.74746550404689
aF203.7619303373607
aF203.7619303373607
aF201.79086000398826
aF201.79086000398826
aF200.80532483730207
aF199.57340587894427
aF198.58787071225802
aF197.60233554557183
aF196.86318417055716
aF195.87764900387094
aF195.87764900387094
aF193.66019487882699
aF192.92104350381231
aF190.70358937876833
aF189.96443800375366
aF189.96443800375366
aF189.96443800375366
aF189.96443800375366
aF189.96443800375366
aF189.96443800375366
aF189.96443800375366
aF187.99336767038125
aF187.99336767038125
aF186.26868112868036
aF187.99336767038125
aF186.76144871202345
aF186.26868112868036
aF186.02229733700881
aF186.02229733700881
aF186.02229733700881
aF186.02229733700881
aF186.26868112868036
aF187.99336767038125
aF187.99336767038125
aF187.99336767038125
aF189.96443800375366
aF189.96443800375366
aF189.96443800375366
aF189.96443800375366
aF189.96443800375366
aF189.96443800375366
aF190.21082179542523
aF190.70358937876833
aF191.68912454545455
aF191.68912454545455
aF191.68912454545455
aF192.92104350381231
aF193.41381108715544
aF193.66019487882699
aF195.87764900387094
aF195.87764900387094
aF195.87764900387094
aF195.87764900387094
aF195.87764900387094
aF195.87764900387094
aF196.86318417055716
aF197.35595175390029
aF197.60233554557183
aF197.60233554557183
aF198.09510312891493
aF197.60233554557183
aF199.57340587894427
aF199.57340587894427
aF199.57340587894427
aF200.80532483730207
aF201.79086000398826
aF201.79086000398826
aF202.0372437956598
aF202.0372437956598
aF203.7619303373607
aF203.7619303373607
aF203.7619303373607
aF203.7619303373607
aF203.7619303373607
aF201.79086000398826
aF201.79086000398826
aF201.79086000398826
aF200.80532483730207
aF201.29809242064516
aF199.57340587894427
aF199.57340587894427
aF199.57340587894427
aF198.58787071225802
aF198.58787071225802
aF197.60233554557183
aF197.60233554557183
aF196.86318417055716
aF196.86318417055716
aF195.87764900387094
aF194.15296246217008
aF193.66019487882699
aF192.92104350381231
aF191.68912454545455
aF190.70358937876833
aF190.21082179542523
aF189.96443800375366
aF189.96443800375366
aF189.96443800375366
aF187.99336767038125
aF187.99336767038125
aF186.02229733700881
aF186.02229733700881
aF185.03676217032256
aF183.80484321196479
aF183.80484321196479
aF183.80484321196479
aF183.80484321196479
aF182.81930804527858
aF182.81930804527858
aF182.81930804527858
aF182.81930804527858
aF182.81930804527858
aF182.81930804527858
aF183.55845942029325
aF182.81930804527858
aF183.80484321196479
aF183.80484321196479
aF183.55845942029325
aF183.80484321196479
aF185.03676217032256
aF185.03676217032256
aF186.02229733700881
aF185.03676217032256
aF185.03676217032256
aF186.02229733700881
aF186.02229733700881
aF186.76144871202345
aF187.99336767038125
aF189.96443800375366
aF189.96443800375366
aF189.96443800375366
aF189.96443800375366
aF189.96443800375366
aF190.70358937876833
aF190.70358937876833
aF191.68912454545455
aF191.68912454545455
aF191.68912454545455
aF192.92104350381231
aF193.66019487882699
aF193.66019487882699
aF193.66019487882699
aF194.6457300455132
aF195.87764900387094
aF195.87764900387094
aF195.87764900387094
aF196.86318417055716
aF195.87764900387094
aF195.87764900387094
aF195.87764900387094
aF193.66019487882699
aF194.15296246217008
aF194.15296246217008
aF195.87764900387094
aF194.15296246217008
aF194.15296246217008
aF193.66019487882699
aF193.66019487882699
aF193.41381108715544
aF191.68912454545455
aF191.442740753783
aF190.70358937876833
aF189.96443800375366
aF189.96443800375366
aF189.96443800375366
aF187.99336767038125
aF187.99336767038125
aF186.02229733700881
aF186.02229733700881
aF186.02229733700881
aF183.80484321196479
aF183.80484321196479
aF182.81930804527858
aF182.08015667026393
aF182.08015667026393
aF181.09462150357771
aF180.10908633689149
aF180.10908633689149
aF178.3843997951906
aF177.89163221184751
aF177.64524842017593
aF177.64524842017593
aF177.15248083683284
aF175.92056187847507
aF175.92056187847507
aF175.92056187847507
aF175.92056187847507
aF175.92056187847507
aF175.92056187847507
aF175.92056187847507
aF177.15248083683284
aF177.15248083683284
aF175.92056187847507
aF177.15248083683284
aF177.15248083683284
aF177.64524842017593
aF177.64524842017593
aF177.64524842017593
aF177.89163221184751
aF177.89163221184751
aF178.87716737853373
aF180.10908633689149
aF180.10908633689149
aF180.10908633689149
aF180.10908633689149
aF181.09462150357771
aF182.08015667026393
aF182.08015667026393
aF182.08015667026393
aF182.32654046193548
aF182.81930804527858
aF183.80484321196479
aF183.80484321196479
aF185.03676217032256
aF186.02229733700881
aF186.02229733700881
aF186.26868112868036
aF186.02229733700881
aF187.99336767038125
aF189.96443800375366
aF189.96443800375366
aF189.96443800375366
aF189.96443800375366
aF189.96443800375366
aF189.96443800375366
aF189.96443800375366
aF189.96443800375366
aF190.70358937876833
aF191.442740753783
aF191.68912454545455
aF191.68912454545455
aF191.68912454545455
aF191.68912454545455
aF191.68912454545455
aF192.92104350381231
aF192.92104350381231
aF192.92104350381231
aF192.92104350381231
aF191.68912454545455
aF192.92104350381231
aF191.68912454545455
aF191.68912454545455
aF191.68912454545455
aF190.21082179542523
aF189.96443800375366
aF189.96443800375366
aF189.96443800375366
aF189.96443800375366
aF187.99336767038125
aF186.26868112868036
aF186.02229733700881
aF183.80484321196479
aF183.80484321196479
aF182.32654046193548
aF182.08015667026393
aF182.08015667026393
aF181.09462150357771
aF178.87716737853373
aF177.89163221184751
aF177.15248083683284
aF175.92056187847507
aF175.92056187847507
aF174.93502671178885
aF174.19587533677418
aF174.19587533677418
aF174.19587533677418
aF172.22480500340174
aF172.22480500340174
aF172.22480500340174
aF170.2537346700293
aF170.2537346700293
aF170.2537346700293
aF170.2537346700293
aF170.2537346700293
aF169.26819950334308
aF170.2537346700293
aF170.2537346700293
aF170.2537346700293
aF170.2537346700293
aF170.2537346700293
aF170.2537346700293
aF170.50011846170088
aF172.22480500340174
aF172.22480500340174
aF172.22480500340174
aF172.22480500340174
aF173.21034017008796
aF174.19587533677418
aF174.19587533677418
aF174.19587533677418
aF174.19587533677418
aF174.44225912844573
aF174.93502671178885
aF175.92056187847507
aF175.92056187847507
aF177.64524842017593
aF177.64524842017593
aF177.89163221184751
aF177.89163221184751
aF177.89163221184751
aF180.10908633689149
aF180.10908633689149
aF181.09462150357771
aF182.08015667026393
aF181.09462150357771
aF182.08015667026393
aF182.08015667026393
aF182.81930804527858
aF183.80484321196479
aF185.03676217032256
aF185.03676217032256
aF186.02229733700881
aF186.02229733700881
aF186.26868112868036
aF187.99336767038125
aF186.26868112868036
aF187.99336767038125
aF187.99336767038125
aF187.99336767038125
aF187.99336767038125
aF187.99336767038125
aF189.96443800375366
aF189.96443800375366
aF189.96443800375366
aF189.96443800375366
aF189.96443800375366
aF187.99336767038125
aF187.99336767038125
aF186.02229733700881
aF186.02229733700881
aF186.02229733700881
aF186.02229733700881
aF185.03676217032256
aF183.80484321196479
aF183.80484321196479
aF182.81930804527858
aF182.08015667026393
aF182.08015667026393
aF182.08015667026393
aF180.10908633689149
aF180.10908633689149
aF178.87716737853373
aF177.89163221184751
aF177.89163221184751
aF177.15248083683284
aF175.67417808680352
aF174.44225912844573
aF174.19587533677418
aF174.19587533677418
aF172.22480500340174
aF172.22480500340174
aF170.50011846170088
aF170.2537346700293
aF169.26819950334308
aF168.03628054498532
aF168.03628054498532
aF168.03628054498532
aF168.03628054498532
aF167.78989675331377
aF167.05074537829913
aF167.05074537829913
aF168.03628054498532
aF168.03628054498532
aF168.03628054498532
aF167.78989675331377
aF167.05074537829913
aF168.03628054498532
aF168.03628054498532
aF168.03628054498532
aF168.03628054498532
aF168.03628054498532
aF168.03628054498532
aF170.2537346700293
aF170.2537346700293
aF170.50011846170088
aF172.22480500340174
aF172.22480500340174
aF173.21034017008796
aF174.19587533677418
aF174.19587533677418
aF174.19587533677418
aF174.19587533677418
aF174.93502671178885
aF175.92056187847507
aF175.92056187847507
aF177.64524842017593
aF177.89163221184751
aF178.87716737853373
aF180.10908633689149
aF180.10908633689149
aF181.09462150357771
aF182.08015667026393
aF182.32654046193548
aF182.81930804527858
aF182.81930804527858
aF182.81930804527858
aF183.55845942029325
aF183.80484321196479
aF183.80484321196479
aF183.80484321196479
aF185.03676217032256
aF186.02229733700881
aF186.02229733700881
aF186.02229733700881
aF186.02229733700881
aF186.02229733700881
aF186.02229733700881
aF186.02229733700881
aF186.02229733700881
aF186.02229733700881
aF186.02229733700881
aF186.02229733700881
aF186.02229733700881
aF185.03676217032256
aF185.03676217032256
aF183.80484321196479
aF183.80484321196479
aF183.55845942029325
aF182.32654046193548
aF182.08015667026393
aF182.08015667026393
aF182.08015667026393
aF180.10908633689149
aF180.10908633689149
aF177.89163221184751
aF177.15248083683284
aF175.92056187847507
aF174.93502671178885
aF174.44225912844573
aF174.19587533677418
aF172.22480500340174
aF172.22480500340174
aF172.22480500340174
aF170.2537346700293
aF170.2537346700293
aF169.26819950334308
aF168.03628054498532
aF168.03628054498532
aF167.78989675331377
aF167.05074537829913
aF166.557977794956
aF166.06521021161291
aF166.06521021161291
aF166.06521021161291
aF166.06521021161291
aF166.06521021161291
aF166.06521021161291
aF166.06521021161291
aF166.06521021161291
aF166.06521021161291
aF166.06521021161291
aF166.06521021161291
aF166.557977794956
aF167.05074537829913
aF167.05074537829913
aF168.03628054498532
aF168.03628054498532
aF168.03628054498532
aF169.26819950334308
aF169.26819950334308
aF170.2537346700293
aF170.2537346700293
aF170.50011846170088
aF172.22480500340174
aF172.22480500340174
aF173.21034017008796
aF174.19587533677418
aF174.19587533677418
aF174.19587533677418
aF174.44225912844573
aF174.44225912844573
aF175.92056187847507
aF175.92056187847507
aF175.92056187847507
aF177.64524842017593
aF177.89163221184751
aF177.89163221184751
aF180.10908633689149
aF180.10908633689149
aF180.10908633689149
aF180.10908633689149
aF181.09462150357771
aF182.08015667026393
aF182.08015667026393
aF182.08015667026393
aF182.08015667026393
aF182.08015667026393
aF182.81930804527858
aF183.55845942029325
aF183.80484321196479
aF185.03676217032256
aF185.03676217032256
aF185.03676217032256
aF183.80484321196479
aF183.80484321196479
aF183.80484321196479
aF183.80484321196479
aF183.80484321196479
aF183.80484321196479
aF183.80484321196479
aF182.81930804527858
aF182.32654046193548
aF182.08015667026393
aF182.08015667026393
aF182.08015667026393
aF181.09462150357771
aF180.10908633689149
aF180.10908633689149
aF180.10908633689149
aF178.3843997951906
aF177.64524842017593
aF175.92056187847507
aF175.92056187847507
aF174.93502671178885
aF174.19587533677418
aF174.19587533677418
aF172.22480500340174
aF172.22480500340174
aF172.22480500340174
aF170.50011846170088
aF170.2537346700293
aF170.2537346700293
aF170.2537346700293
aF168.03628054498532
aF167.78989675331377
aF166.557977794956
aF166.06521021161291
aF166.06521021161291
aF166.06521021161291
aF166.06521021161291
aF165.81882641994136
aF165.81882641994136
aF166.06521021161291
aF166.06521021161291
aF166.06521021161291
aF166.06521021161291
aF166.06521021161291
aF166.06521021161291
aF167.05074537829913
aF167.78989675331377
aF168.03628054498532
aF168.03628054498532
aF169.26819950334308
aF170.2537346700293
aF170.2537346700293
aF170.2537346700293
aF170.2537346700293
aF172.22480500340174
aF172.22480500340174
aF172.22480500340174
aF174.19587533677418
aF174.19587533677418
aF174.19587533677418
aF174.44225912844573
aF174.44225912844573
aF174.93502671178885
aF175.92056187847507
aF175.92056187847507
aF177.15248083683284
aF177.89163221184751
aF180.10908633689149
aF180.10908633689149
aF180.10908633689149
aF182.08015667026393
aF182.08015667026393
aF182.08015667026393
aF182.08015667026393
aF182.81930804527858
aF182.81930804527858
aF182.81930804527858
aF182.81930804527858
aF183.55845942029325
aF183.80484321196479
aF183.80484321196479
aF183.80484321196479
aF183.55845942029325
aF182.81930804527858
aF182.81930804527858
aF182.81930804527858
aF182.81930804527858
aF182.08015667026393
aF182.08015667026393
aF182.08015667026393
aF181.09462150357771
aF180.10908633689149
aF180.10908633689149
aF180.10908633689149
aF177.89163221184751
aF177.89163221184751
aF177.15248083683284
aF175.92056187847507
aF174.93502671178885
aF174.93502671178885
aF174.93502671178885
aF174.19587533677418
aF173.21034017008796
aF172.22480500340174
aF170.50011846170088
aF170.2537346700293
aF170.2537346700293
aF168.03628054498532
aF167.05074537829913
aF167.05074537829913
aF166.557977794956
aF166.06521021161291
aF165.81882641994136
aF165.81882641994136
aF165.32605883659824
aF165.81882641994136
aF165.32605883659824
aF165.32605883659824
aF165.32605883659824
aF165.32605883659824
aF165.32605883659824
aF165.32605883659824
aF166.06521021161291
aF165.81882641994136
aF166.06521021161291
aF166.06521021161291
aF166.06521021161291
aF167.05074537829913
aF168.03628054498532
aF168.03628054498532
aF168.03628054498532
aF169.76096708668621
aF170.2537346700293
aF170.2537346700293
aF172.22480500340174
aF172.22480500340174
aF172.22480500340174
aF172.22480500340174
aF173.21034017008796
aF174.19587533677418
aF174.19587533677418
aF174.19587533677418
aF174.44225912844573
aF174.93502671178885
aF175.92056187847507
aF175.92056187847507
aF175.92056187847507
aF177.89163221184751
aF177.89163221184751
aF177.89163221184751
aF180.10908633689149
aF180.10908633689149
aF180.10908633689149
aF181.09462150357771
aF180.10908633689149
aF181.09462150357771
aF182.08015667026393
aF181.09462150357771
aF180.10908633689149
aF180.10908633689149
aF180.10908633689149
aF177.89163221184751
aF177.89163221184751
aF177.89163221184751
aF177.15248083683284
aF175.92056187847507
aF175.92056187847507
aF175.92056187847507
aF174.93502671178885
aF174.44225912844573
aF174.19587533677418
aF174.19587533677418
aF172.22480500340174
aF172.22480500340174
aF170.2537346700293
aF170.2537346700293
aF170.2537346700293
aF168.03628054498532
aF168.03628054498532
aF167.05074537829913
aF167.05074537829913
aF166.06521021161291
aF166.06521021161291
aF165.32605883659824
aF164.34052366991205
aF164.34052366991205
aF162.12306954486803
aF162.12306954486803
aF162.12306954486803
aF160.15199921149556
aF160.15199921149556
aF158.18092887812315
aF158.18092887812315
aF158.18092887812315
aF157.44177750310848
aF156.45624233642226
aF154.7315557947214
aF154.48517200304985
aF154.48517200304985
aF152.26771787800587
aF152.26771787800587
aF152.02133408633432
aF151.28218271131965
aF150.54303133630498
aF149.55749616961876
aF148.57196100293254
aF146.35450687788855
aF146.35450687788855
aF144.38343654451612
aF144.38343654451612
aF143.3979013778299
aF142.41236621114368
aF142.41236621114368
aF142.16598241947213
aF141.67321483612903
aF140.68767966944282
aF140.68767966944282
aF140.68767966944282
aF138.96299312774195
aF138.96299312774195
aF138.71660933607041
aF138.71660933607041
aF137.73107416938419
aF136.49915521102639
aF136.25277141935484
aF135.51362004434014
aF134.52808487765392
aF134.28170108598238
aF134.28170108598238
aF134.28170108598238
aF133.78893350263928
aF132.80339833595306
aF132.80339833595306
aF131.07871179425217
aF130.58594421090908
aF130.58594421090908
aF130.3395604192375
aF130.3395604192375
aF129.84679283589441
aF128.61487387753667
aF128.61487387753667
aF127.13657112750732
aF126.89018733583578
aF126.64380354416423
aF126.39741975249268
aF125.90465216914956
aF124.91911700246335
aF124.91911700246335
aF124.91911700246335
aF124.91911700246335
aF122.94804666909091
aF122.94804666909091
aF122.94804666909091
aF121.96251150240469
aF120.73059254404693
aF120.73059254404693
aF119.74505737736071
aF119.25228979401761
aF119.25228979401761
aF119.00590600234604
aF119.00590600234604
aF119.00590600234604
aF118.02037083565983
aF118.02037083565983
aF118.02037083565983
aF117.03483566897361
aF117.03483566897361
aF115.31014912727275
aF115.31014912727275
aF114.81738154392963
aF114.57099775225808
aF114.57099775225808
aF114.07823016891498
aF112.84631121055719
aF112.59992741888564
aF112.59992741888564
aF111.86077604387097
aF111.86077604387097
aF111.12162466885631
aF111.12162466885631
aF111.12162466885631
aF111.12162466885631
aF111.12162466885631
aF111.12162466885631
aF110.13608950217009
aF110.13608950217009
aF109.15055433548387
aF109.15055433548387
aF109.15055433548387
aF107.91863537712611
aF107.91863537712611
aF107.17948400211144
aF107.17948400211144
aF107.17948400211144
aF106.19394883542522
aF106.68671641876831
aF106.19394883542522
aF104.96202987706745
aF104.96202987706745
aF104.96202987706745
aF104.96202987706745
aF103.97649471038125
aF103.97649471038125
aF103.48372712703812
aF103.48372712703812
aF102.99095954369503
aF102.99095954369503
aF102.74457575202345
aF102.74457575202345
aF102.25180816868036
aF101.26627300199414
aF101.26627300199414
aF101.26627300199414
aF101.26627300199414
aF101.26627300199414
aF99.541586460293246
aF99.048818876950151
aF99.048818876950151
aF99.048818876950151
aF99.048818876950151
aF98.802435085278589
aF98.309667501935479
aF98.309667501935479
aF97.077748543577727
aF96.831364751906165
aF96.092213376891507
aF96.092213376891507
aF96.092213376891507
aF96.092213376891507
aF95.599445793548398
aF95.353062001876836
aF95.353062001876836
aF95.353062001876836
aF95.353062001876836
aF95.353062001876836
aF95.353062001876836
aF95.353062001876836
aF93.381991668504412
aF93.381991668504412
aF93.381991668504412
aF93.381991668504412
aF93.381991668504412
aF92.150072710146631
aF91.657305126803521
aF91.410921335131974
aF91.410921335131974
aF91.410921335131974
aF91.410921335131974
aF91.410921335131974
aF91.410921335131974
aF90.425386168445755
aF89.193467210087974
aF89.193467210087974
aF89.193467210087974
aF89.193467210087974
aF89.193467210087974
aF89.193467210087974
aF88.947083418416426
aF88.207932043401769
aF88.207932043401769
aF87.468780668387097
aF87.468780668387097
aF87.468780668387097
aF87.468780668387097
aF87.468780668387097
aF87.468780668387097
aF87.468780668387097
aF86.483245501700878
aF86.483245501700878
aF85.497710335014659
aF85.497710335014659
aF85.497710335014659
aF85.497710335014659
aF85.497710335014659
aF85.497710335014659
aF84.265791376656892
aF83.773023793313797
aF83.773023793313797
aF83.280256209970688
aF83.280256209970688
aF83.280256209970688
aF83.280256209970688
aF83.280256209970688
aF83.033872418299126
aF83.033872418299126
aF83.033872418299126
aF83.033872418299126
aF82.54110483495603
aF82.54110483495603
aF81.309185876598249
aF81.309185876598249
aF81.309185876598249
aF81.309185876598249
aF81.309185876598249
aF81.309185876598249
aF81.309185876598249
aF81.309185876598249
aF81.062802084926702
aF80.323650709912016
aF80.323650709912016
aF80.323650709912016
aF80.323650709912016
aF80.323650709912016
aF79.338115543225797
aF79.338115543225797
aF79.338115543225797
aF79.091731751554249
aF79.091731751554249
aF78.59896416821114
aF78.59896416821114
aF78.59896416821114
aF78.59896416821114
aF78.59896416821114
aF78.59896416821114
aF77.613429001524935
aF77.613429001524935
aF77.613429001524935
aF76.381510043167168
aF76.381510043167168
aF76.381510043167168
aF75.888742459824059
aF75.888742459824059
aF75.642358668152497
aF75.642358668152497
aF75.642358668152497
aF75.642358668152497
aF75.642358668152497
aF75.149591084809387
aF74.656823501466278
aF74.656823501466278
aF73.424904543108511
aF73.424904543108511
aF73.424904543108511
aF73.424904543108511
aF73.424904543108511
aF73.424904543108511
aF73.424904543108511
aF73.424904543108511
aF73.424904543108511
aF73.424904543108511
aF72.439369376422292
aF73.178520751436949
aF72.439369376422292
aF72.439369376422292
aF71.946601793079182
aF71.453834209736073
aF71.453834209736073
aF71.453834209736073
aF71.453834209736073
aF71.453834209736073
aF71.453834209736073
aF71.453834209736073
aF71.207450418064525
aF71.207450418064525
aF70.714682834721415
aF70.714682834721415
aF70.714682834721415
aF70.714682834721415
aF69.72914766803521
aF70.714682834721415
aF69.72914766803521
aF69.72914766803521
aF69.72914766803521
aF69.72914766803521
aF69.72914766803521
aF69.72914766803521
aF69.72914766803521
aF68.497228709677429
aF68.004461126334306
aF67.511693542991196
aF67.511693542991196
aF68.004461126334306
aF67.511693542991196
aF67.511693542991196
aF67.511693542991196
aF67.265309751319649
aF67.511693542991196
aF67.265309751319649
aF67.265309751319649
aF66.772542167976539
aF66.772542167976539
aF66.772542167976539
aF66.772542167976539
aF66.772542167976539
aF66.772542167976539
aF65.540623209618758
aF65.540623209618758
aF65.540623209618758
aF65.540623209618758
aF65.540623209618758
aF65.540623209618758
aF65.540623209618758
aF65.540623209618758
aF65.540623209618758
aF65.540623209618758
aF65.29423941794721
aF64.555088042932539
aF65.540623209618758
aF65.29423941794721
aF63.569552876246341
aF63.569552876246341
aF63.569552876246341
aF63.569552876246341
aF63.569552876246341
aF63.569552876246341
aF63.569552876246341
aF63.569552876246341
aF63.569552876246341
aF63.569552876246341
aF63.569552876246341
aF63.569552876246341
aF63.569552876246341
aF63.323169084574779
aF62.830401501231677
aF63.323169084574779
aF62.830401501231677
aF62.830401501231677
aF62.830401501231677
aF62.830401501231677
aF62.830401501231677
aF62.830401501231677
aF61.844866334545458
aF61.844866334545458
aF61.844866334545458
aF61.844866334545458
aF61.844866334545458
aF61.844866334545458
aF61.844866334545458
aF61.844866334545458
aF61.844866334545458
aF61.844866334545458
aF61.844866334545458
aF61.844866334545458
aF61.844866334545458
aF61.844866334545458
aF61.844866334545458
aF61.844866334545458
aF60.612947376187691
aF59.873796001173019
aF59.873796001173019
aF59.873796001173019
aF59.873796001173019
aF59.873796001173019
aF59.873796001173019
aF59.873796001173019
aF59.873796001173019
aF59.873796001173019
aF59.873796001173019
aF59.873796001173019
aF59.873796001173019
aF59.381028417829917
aF58.888260834486807
aF59.873796001173019
aF58.888260834486807
aF58.888260834486807
aF57.656341876129041
aF57.656341876129041
aF57.656341876129041
aF57.656341876129041
aF57.656341876129041
aF57.656341876129041
aF57.656341876129041
aF57.656341876129041
aF57.656341876129041
aF57.656341876129041
aF57.656341876129041
aF57.409958084457493
aF56.670806709442822
aF56.670806709442822
aF56.670806709442822
aF56.178039126099712
aF56.670806709442822
aF56.670806709442822
aF55.931655334428157
aF56.178039126099712
aF55.931655334428157
aF55.931655334428157
aF55.931655334428157
aF55.931655334428157
aF55.931655334428157
aF55.931655334428157
aF55.931655334428157
aF55.931655334428157
aF55.931655334428157
aF55.931655334428157
aF55.931655334428157
aF55.931655334428157
aF54.946120167741938
aF55.931655334428157
aF54.946120167741938
aF54.946120167741938
aF54.946120167741938
aF54.946120167741938
aF54.946120167741938
aF53.960585001055719
aF53.960585001055719
aF53.960585001055719
aF53.960585001055719
aF53.960585001055719
aF53.960585001055719
aF53.960585001055719
aF53.960585001055719
aF53.960585001055719
aF53.960585001055719
aF53.960585001055719
aF53.960585001055719
aF53.960585001055719
aF53.960585001055719
aF52.728666042697945
aF53.960585001055719
aF53.960585001055719
aF53.960585001055719
aF52.728666042697945
aF53.960585001055719
aF52.728666042697945
aF52.235898459354836
aF52.235898459354836
aF52.235898459354836
aF52.235898459354836
aF51.743130876011726
aF51.743130876011726
aF51.743130876011726
aF51.743130876011726
aF51.743130876011726
aF51.743130876011726
aF51.743130876011726
aF51.496747084340178
aF51.496747084340178
aF51.496747084340178
aF51.743130876011726
aF51.496747084340178
aF51.496747084340178
aF51.496747084340178
aF51.496747084340178
aF51.003979500997069
aF51.496747084340178
aF51.496747084340178
aF51.496747084340178
aF51.003979500997069
aF51.003979500997069
aF51.003979500997069
aF49.772060542639295
aF51.003979500997069
aF51.003979500997069
aF49.772060542639295
aF49.772060542639295
aF49.772060542639295
aF49.772060542639295
aF49.772060542639295
aF49.772060542639295
aF49.772060542639295
aF49.772060542639295
aF49.772060542639295
aF49.772060542639295
aF49.772060542639295
aF49.52567675096774
aF49.772060542639295
aF49.52567675096774
aF49.52567675096774
aF48.786525375953083
aF49.52567675096774
aF48.786525375953083
aF48.786525375953083
aF48.786525375953083
aF48.786525375953083
aF48.786525375953083
aF48.786525375953083
aF48.293757792609973
aF48.293757792609973
aF48.293757792609973
aF48.293757792609973
aF48.293757792609973
aF48.047374000938419
aF48.293757792609973
aF48.047374000938419
aF48.047374000938419
aF48.047374000938419
aF48.047374000938419
aF48.047374000938419
aF48.047374000938419
aF48.047374000938419
aF48.047374000938419
aF48.047374000938419
aF48.047374000938419
aF48.047374000938419
aF48.047374000938419
aF48.047374000938419
aF48.047374000938419
aF48.047374000938419
aF48.047374000938419
aF48.047374000938419
aF48.047374000938419
aF48.047374000938419
aF48.047374000938419
aF48.047374000938419
aF48.047374000938419
aF48.047374000938419
aF48.047374000938419
aF47.061838834252207
aF47.061838834252207
aF47.061838834252207
aF47.061838834252207
aF47.061838834252207
aF47.061838834252207
aF46.076303667565988
aF47.061838834252207
aF47.061838834252207
aF47.061838834252207
aF47.061838834252207
aF47.061838834252207
aF46.076303667565988
aF46.076303667565988
aF46.076303667565988
aF46.076303667565988
aF46.076303667565988
aF46.076303667565988
aF46.076303667565988
aF46.076303667565988
aF46.076303667565988
aF46.076303667565988
aF46.076303667565988
aF46.076303667565988
aF46.076303667565988
aF46.076303667565988
aF46.076303667565988
aF46.076303667565988
aF46.076303667565988
aF46.076303667565988
aF46.076303667565988
aF46.076303667565988
aF46.076303667565988
aF46.076303667565988
aF46.076303667565988
aF46.076303667565988
aF46.076303667565988
aF46.076303667565988
aF44.844384709208214
aF44.844384709208214
aF44.351617125865104
aF44.351617125865104
aF44.844384709208214
aF44.105233334193549
aF44.351617125865104
aF44.105233334193549
aF44.105233334193549
aF44.105233334193549
aF44.105233334193549
aF44.105233334193549
aF44.105233334193549
aF44.105233334193549
aF44.105233334193549
aF44.105233334193549
aF44.105233334193549
aF44.105233334193549
aF44.105233334193549
aF44.105233334193549
aF44.105233334193549
aF44.105233334193549
aF44.105233334193549
aF44.105233334193549
aF44.105233334193549
aF44.105233334193549
aF44.105233334193549
aF44.105233334193549
aF44.105233334193549
aF44.105233334193549
aF43.61246575085044
aF44.105233334193549
aF43.61246575085044
aF43.11969816750733
aF43.61246575085044
aF43.61246575085044
aF43.11969816750733
aF43.11969816750733
aF43.11969816750733
aF43.11969816750733
aF43.11969816750733
aF41.887779209149564
aF43.11969816750733
aF43.11969816750733
aF41.887779209149564
aF41.887779209149564
aF43.11969816750733
aF43.11969816750733
aF41.887779209149564
aF41.887779209149564
aF41.887779209149564
aF41.887779209149564
aF41.887779209149564
aF41.887779209149564
aF41.887779209149564
aF41.887779209149564
aF41.887779209149564
aF41.887779209149564
aF41.887779209149564
aF41.887779209149564
aF41.887779209149564
aF41.887779209149564
aF41.887779209149564
aF41.887779209149564
aF41.887779209149564
aF41.887779209149564
aF41.887779209149564
aF41.887779209149564
aF41.887779209149564
aF41.887779209149564
aF41.887779209149564
aF40.902244042463352
aF41.641395417478016
aF41.641395417478016
aF41.641395417478016
aF41.641395417478016
aF41.887779209149564
aF40.902244042463352
aF40.902244042463352
aF40.902244042463352
aF40.902244042463352
aF40.902244042463352
aF40.902244042463352
aF40.409476459120235
aF40.409476459120235
aF40.902244042463352
aF40.902244042463352
aF40.902244042463352
aF40.902244042463352
aF40.902244042463352
aF40.409476459120235
aF39.916708875777125
aF40.409476459120235
aF40.409476459120235
aF40.409476459120235
aF40.902244042463352
aF39.916708875777125
aF39.916708875777125
aF39.916708875777125
aF39.916708875777125
aF39.916708875777125
aF39.916708875777125
aF39.916708875777125
aF39.916708875777125
aF39.916708875777125
aF39.916708875777125
aF39.916708875777125
aF39.916708875777125
aF39.916708875777125
aF39.916708875777125
aF39.916708875777125
aF39.916708875777125
aF39.916708875777125
aF39.916708875777125
aF39.916708875777125
aF39.916708875777125
aF39.916708875777125
aF39.916708875777125
aF39.916708875777125
aF39.916708875777125
aF39.916708875777125
aF39.916708875777125
aF39.916708875777125
aF39.916708875777125
aF39.916708875777125
aF39.916708875777125
aF39.670325084105571
aF39.670325084105571
aF39.670325084105571
aF39.670325084105571
aF39.670325084105571
aF39.670325084105571
aF39.670325084105571
aF39.670325084105571
aF39.670325084105571
aF39.670325084105571
aF39.670325084105571
aF39.670325084105571
aF39.916708875777125
aF39.177557500762468
aF39.670325084105571
aF39.177557500762468
aF39.177557500762468
aF39.177557500762468
aF39.177557500762468
aF39.177557500762468
aF39.177557500762468
aF39.177557500762468
aF39.177557500762468
aF39.177557500762468
aF39.177557500762468
aF39.177557500762468
aF39.177557500762468
aF39.177557500762468
aF39.177557500762468
aF39.177557500762468
aF39.177557500762468
aF39.177557500762468
aF39.177557500762468
aF39.177557500762468
aF39.177557500762468
aF38.192022334076249
aF38.192022334076249
aF39.177557500762468
aF38.192022334076249
aF39.177557500762468
aF38.192022334076249
aF38.192022334076249
aF39.177557500762468
aF38.192022334076249
aF38.192022334076249
aF38.192022334076249
aF38.192022334076249
aF38.192022334076249
aF38.192022334076249
aF38.192022334076249
aF38.192022334076249
aF38.192022334076249
aF38.192022334076249
aF38.192022334076249
aF38.192022334076249
aF38.192022334076249
aF38.192022334076249
aF38.192022334076249
aF38.192022334076249
aF38.192022334076249
aF38.192022334076249
aF38.192022334076249
aF38.192022334076249
aF38.192022334076249
aF38.192022334076249
aF38.192022334076249
aF38.192022334076249
aF38.192022334076249
aF38.192022334076249
aF38.192022334076249
aF38.192022334076249
aF36.960103375718475
aF38.192022334076249
aF36.960103375718475
aF36.467335792375366
aF36.960103375718475
aF36.960103375718475
aF36.960103375718475
aF36.467335792375366
aF36.960103375718475
aF36.467335792375366
aF36.960103375718475
aF36.467335792375366
aF36.467335792375366
aF36.467335792375366
aF36.467335792375366
aF36.467335792375366
aF36.467335792375366
aF36.220952000703811
aF36.467335792375366
aF35.974568209032263
aF36.467335792375366
aF36.220952000703811
aF35.974568209032263
aF36.467335792375366
aF35.974568209032263
aF35.974568209032263
aF35.974568209032263
aF35.974568209032263
aF35.974568209032263
aF35.974568209032263
aF35.974568209032263
aF35.974568209032263
aF35.974568209032263
aF35.974568209032263
aF35.974568209032263
aF35.974568209032263
aF35.974568209032263
aF35.974568209032263
aF35.974568209032263
aF35.974568209032263
aF35.974568209032263
aF35.974568209032263
aF35.974568209032263
aF35.974568209032263
aF35.974568209032263
aF35.974568209032263
aF35.974568209032263
aF35.974568209032263
aF35.974568209032263
aF35.728184417360708
aF35.728184417360708
aF35.974568209032263
aF35.728184417360708
aF35.974568209032263
aF35.728184417360708
aF35.728184417360708
aF35.728184417360708
aF35.974568209032263
aF35.728184417360708
aF35.728184417360708
aF35.728184417360708
aF35.728184417360708
aF35.728184417360708
aF35.728184417360708
aF35.728184417360708
aF35.728184417360708
aF35.728184417360708
aF35.728184417360708
aF35.728184417360708
aF35.728184417360708
aF35.728184417360708
aF35.728184417360708
aF35.235416834017606
aF35.728184417360708
aF35.235416834017606
aF35.235416834017606
aF35.728184417360708
aF35.235416834017606
aF34.003497875659825
aF35.235416834017606
aF35.235416834017606
aF35.235416834017606
aF35.235416834017606
aF35.235416834017606
aF35.235416834017606
aF34.003497875659825
aF35.235416834017606
aF35.235416834017606
aF35.235416834017606
aF34.003497875659825
aF34.003497875659825
aF34.003497875659825
aF34.003497875659825
aF34.003497875659825
aF34.003497875659825
aF34.003497875659825
aF34.003497875659825
aF34.003497875659825
aF34.003497875659825
aF34.003497875659825
aF34.003497875659825
aF34.003497875659825
aF34.003497875659825
aF34.003497875659825
aF34.003497875659825
aF34.003497875659825
aF34.003497875659825
aF34.003497875659825
aF34.003497875659825
aF34.003497875659825
aF34.003497875659825
aF34.003497875659825
aF34.003497875659825
aF34.003497875659825
aF34.003497875659825
aF34.003497875659825
aF34.003497875659825
aF34.003497875659825
aF34.003497875659825
aF34.003497875659825
aF34.003497875659825
aF34.003497875659825
aF34.003497875659825
aF34.003497875659825
aF34.003497875659825
aF34.003497875659825
aF34.003497875659825
aF34.003497875659825
aF34.003497875659825
aF34.003497875659825
aF34.003497875659825
aF34.003497875659825
aF34.003497875659825
aF34.003497875659825
aF34.003497875659825
aF34.003497875659825
aF34.003497875659825
aF34.003497875659825
aF34.003497875659825
aF34.003497875659825
aF33.017962708973606
aF33.75711408398827
aF34.003497875659825
aF33.017962708973606
aF33.017962708973606
aF33.017962708973606
aF33.017962708973606
aF33.017962708973606
aF33.75711408398827
aF33.75711408398827
aF33.017962708973606
aF33.017962708973606
aF33.017962708973606
aF33.75711408398827
aF33.017962708973606
aF33.017962708973606
aF33.017962708973606
aF33.017962708973606
aF33.017962708973606
aF33.017962708973606
aF33.017962708973606
aF33.017962708973606
aF33.017962708973606
aF33.017962708973606
aF33.017962708973606
aF33.017962708973606
aF33.017962708973606
aF33.017962708973606
aF33.017962708973606
aF33.017962708973606
aF33.017962708973606
aF32.525195125630496
aF33.017962708973606
aF33.017962708973606
aF33.017962708973606
aF33.017962708973606
aF33.017962708973606
aF33.017962708973606
aF33.017962708973606
aF33.017962708973606
aF32.032427542287387
aF33.017962708973606
aF32.525195125630496
aF33.017962708973606
aF32.032427542287387
aF32.525195125630496
aF32.032427542287387
aF32.032427542287387
aF32.032427542287387
aF32.032427542287387
aF32.032427542287387
aF33.017962708973606
aF32.032427542287387
aF32.032427542287387
aF32.032427542287387
aF32.032427542287387
aF32.032427542287387
aF32.032427542287387
aF32.032427542287387
aF32.032427542287387
aF32.032427542287387
aF32.032427542287387
asS'time_list'
p4
(lp5
F0
aF1.0026390552520752
aF2.0065510272979736
aF3.010465145111084
aF4.0143849849700928
aF5.0183060169219971
aF6.0222270488739014
aF7.0261480808258057
aF8.0300681591033936
aF9.0339920520782471
aF10.037909984588623
aF11.041835069656372
aF12.045679092407227
aF13.049673080444336
aF14.053620100021362
aF15.057517051696777
aF16.061437129974365
aF17.065356969833374
aF18.069278955459595
aF19.073203086853027
aF20.077121019363403
aF21.081042051315308
aF22.084145069122314
aF23.08793306350708
aF24.09180212020874
aF25.095724105834961
aF26.099650144577026
aF27.103568077087402
aF28.107490062713623
aF29.111410140991211
aF30.115373134613037
aF31.119257926940918
aF32.123172998428345
aF33.127094030380249
aF34.131016969680786
aF35.134937047958374
aF36.138859987258911
aF37.142786026000977
aF38.146706104278564
aF39.150619983673096
aF40.154538154602051
aF41.158463001251221
aF42.162383079528809
aF43.166309118270874
aF44.170335054397583
aF45.174152135848999
aF46.177680969238281
aF47.181988000869751
aF48.185847043991089
aF49.18983006477356
aF50.193750143051147
aF51.197670936584473
aF52.201590061187744
aF53.205513000488281
aF54.209713935852051
aF55.213356018066406
aF56.217280149459839
aF57.221194982528687
aF58.225121021270752
aF59.229040145874023
aF60.232968091964722
aF61.236892938613892
aF62.240803956985474
aF63.244722127914429
aF64.248644113540649
aF65.252563953399658
aF66.256493091583252
aF67.260406017303467
aF68.264328956604004
aF69.268248081207275
aF70.272180080413818
aF71.276090145111084
aF72.280012130737305
aF73.283113956451416
aF74.286854982376099
aF75.290387153625488
aF76.293697118759155
aF77.297614097595215
aF78.301545143127441
aF79.305459022521973
aF80.309376955032349
aF81.313298940658569
aF82.317219972610474
aF83.321150064468384
aF84.324243068695068
aF85.327985048294067
aF86.331902980804443
aF87.335824966430664
aF88.339749097824097
aF89.343667984008789
aF90.34758996963501
aF91.351515054702759
aF92.355435132980347
aF93.359353065490723
aF94.363271951675415
aF95.367195129394531
aF96.371120929718018
aF97.373872995376587
aF98.377957105636597
aF99.381881952285767
aF100.38587403297424
aF101.39355707168579
aF102.39763903617859
aF103.40156006813049
aF104.40548205375671
aF105.40876293182373
aF106.41232204437256
aF107.41625094413757
aF108.42016696929932
aF109.42409300804138
aF110.4280059337616
aF111.43194103240967
aF112.43585014343262
aF113.43977093696594
aF114.44369006156921
aF115.44761204719543
aF116.45153307914734
aF117.45545196533203
aF118.45937705039978
aF119.46330308914185
aF120.46721816062927
aF121.4711389541626
aF122.47504615783691
aF123.47898101806641
aF124.48290610313416
aF125.48682808876038
aF126.4907500743866
aF127.49466896057129
aF128.49858403205872
aF129.50254011154175
aF130.50642800331116
aF131.51034998893738
aF132.51426696777344
aF133.51819014549255
aF134.52211213111877
aF135.52603697776794
aF136.52995800971985
aF137.5336811542511
aF138.53779411315918
aF139.54171395301819
aF140.54563593864441
aF141.54955697059631
aF142.55347895622253
aF143.55740714073181
aF144.56131815910339
aF145.56523895263672
aF146.56874012947083
aF147.57208108901978
aF148.57600402832031
aF149.5799241065979
aF150.58384299278259
aF151.58775496482849
aF152.5916919708252
aF153.59560799598694
aF154.59953308105469
aF155.60337114334106
aF156.60727310180664
aF157.61129093170166
aF158.61521196365356
aF159.619136095047
aF160.62305808067322
aF161.62698912620544
aF162.63091707229614
aF163.6348180770874
aF164.63875198364258
aF165.642657995224
aF166.64658093452454
aF167.65049910545349
aF168.6544201374054
aF169.65834093093872
aF170.66194105148315
aF171.66618704795837
aF172.67011404037476
aF173.67403411865234
aF174.67794895172119
aF175.68186902999878
aF176.68578910827637
aF177.68971514701843
aF178.69363212585449
aF179.69754910469055
aF180.70147800445557
aF181.70539402961731
aF182.70932102203369
aF183.7132351398468
aF184.71716403961182
aF185.72023701667786
aF186.72399806976318
aF187.7279200553894
aF188.73184299468994
aF189.73562407493591
aF190.73968505859375
aF191.74364113807678
aF192.74752998352051
aF193.75101208686829
aF194.75436997413635
aF195.75829315185547
aF196.76220703125
aF197.7661349773407
aF198.76984596252441
aF199.77397203445435
aF200.77789115905762
aF201.78181314468384
aF202.78573608398438
aF203.78966403007507
aF204.79357504844666
aF205.79749608039856
aF206.80141806602478
aF207.80534315109253
aF208.80926609039307
aF209.81312608718872
aF210.81713199615479
aF211.82102394104004
aF212.82494807243347
aF213.82844114303589
aF214.83179116249084
aF215.83570694923401
aF216.83962893486023
aF217.84355211257935
aF218.84747004508972
aF219.85139298439026
aF220.85531401634216
aF221.85923099517822
aF222.86315393447876
aF223.86707615852356
aF224.87129306793213
aF225.87491607666016
aF226.87883806228638
aF227.88277006149292
aF228.88668704032898
aF229.89059996604919
aF230.89452409744263
aF231.898442029953
aF232.90236210823059
aF233.90628409385681
aF234.91020607948303
aF235.91412401199341
aF236.91804599761963
aF237.92196702957153
aF238.92588806152344
aF239.92968893051147
aF240.93373394012451
aF241.93777298927307
aF242.94157004356384
aF243.94549298286438
aF244.94940996170044
aF245.95245909690857
aF246.95625996589661
aF247.96018099784851
aF248.96409702301025
aF249.96801900863647
aF250.97193908691406
aF251.97586011886597
aF252.97981595993042
aF253.98295998573303
aF254.98662614822388
aF255.98968005180359
aF256.99346399307251
aF257.99738693237305
aF259.00130701065063
aF260.00437092781067
aF261.00769209861755
aF262.01107096672058
aF263.0149941444397
aF264.01891207695007
aF265.02281212806702
aF266.02676296234131
aF267.03067398071289
aF268.03460097312927
aF269.03852415084839
aF270.04243993759155
aF271.04567408561707
aF272.04925894737244
aF273.05320596694946
aF274.05712294578552
aF275.06104493141174
aF276.064129114151
aF277.06788396835327
aF278.07180404663086
aF279.0749249458313
aF280.07864713668823
aF281.08256793022156
aF282.08648800849915
aF283.09041309356689
aF284.09433007240295
aF285.09825611114502
aF286.10217308998108
aF287.1060950756073
aF288.1097719669342
aF289.11393594741821
aF290.11789608001709
aF291.12178492546082
aF292.12569904327393
aF293.12962198257446
aF294.13333797454834
aF295.13746213912964
aF296.14138102531433
aF297.14530396461487
aF298.14911603927612
aF299.15314602851868
aF300.15679097175598
aF301.16098594665527
aF302.16490602493286
aF303.16834712028503
aF304.1717529296875
aF305.17567896842957
aF306.17959809303284
aF307.18280100822449
aF308.18666410446167
aF309.19035410881042
aF310.19427609443665
aF311.1977961063385
aF312.20112609863281
aF313.20503902435303
aF314.20895910263062
aF315.21288204193115
aF316.21680212020874
aF317.22072815895081
aF318.22464203834534
aF319.22857403755188
aF320.23248410224915
aF321.23641109466553
aF322.24032711982727
aF323.24415493011475
aF324.24817109107971
aF325.25209712982178
aF326.25600814819336
aF327.25993204116821
aF328.26385092735291
aF329.26777911186218
aF330.27169609069824
aF331.27562308311462
aF332.27898812294006
aF333.28245711326599
aF334.28638005256653
aF335.29030203819275
aF336.29421997070312
aF337.29770612716675
aF338.3002941608429
aF339.30398106575012
aF340.30715012550354
aF341.31083106994629
aF342.31415796279907
aF343.31767296791077
aF344.32158994674683
aF345.3255090713501
aF346.32943105697632
aF347.33335399627686
aF348.33727097511292
aF349.3411910533905
aF350.34511399269104
aF351.34903812408447
aF352.35256099700928
aF353.35588192939758
aF354.35979604721069
aF355.36372113227844
aF356.36764907836914
aF357.37157201766968
aF358.37548112869263
aF359.37943315505981
aF360.38332414627075
aF361.38640403747559
aF362.39016699790955
aF363.39408493041992
aF364.39800405502319
aF365.40193510055542
aF366.40584802627563
aF367.40976905822754
aF368.41369795799255
aF369.4176139831543
aF370.42153215408325
aF371.42546105384827
aF372.42887496948242
aF373.43174695968628
aF374.43515706062317
aF375.43913698196411
aF376.44305896759033
aF377.44697999954224
aF378.45043301582336
aF379.4538209438324
aF380.45677804946899
aF381.46066498756409
aF382.46458411216736
aF383.46772313117981
aF384.47142910957336
aF385.47534608840942
aF386.47926712036133
aF387.48314809799194
aF388.48711204528809
aF389.49103093147278
aF390.49495196342468
aF391.49887204170227
aF392.50281000137329
aF393.50672698020935
aF394.51064300537109
aF395.51449203491211
aF396.5184760093689
aF397.5223970413208
aF398.52568101882935
aF399.52924013137817
aF400.53316307067871
aF401.53708100318909
aF402.54100894927979
aF403.54492211341858
aF404.54884505271912
aF405.55277109146118
aF406.55617499351501
aF407.55962109565735
aF408.56288194656372
aF409.56644797325134
aF410.57037401199341
aF411.57429194450378
aF412.57821393013
aF413.58214116096497
aF414.58605694770813
aF415.58997702598572
aF416.59389615058899
aF417.59698510169983
aF418.6007399559021
aF419.60465693473816
aF420.60858106613159
aF421.61249995231628
aF422.61642599105835
aF423.62034296989441
aF424.62426400184631
aF425.6281840801239
aF426.63210606575012
aF427.6351420879364
aF428.63895010948181
aF429.6428689956665
aF430.64679098129272
aF431.65072798728943
aF432.6546311378479
aF433.65767502784729
aF434.66147494316101
aF435.66539406776428
aF436.66934609413147
aF437.67323613166809
aF438.67715811729431
aF439.68108606338501
aF440.68499803543091
aF441.6889181137085
aF442.69284200668335
aF443.69676303863525
aF444.70068907737732
aF445.70460414886475
aF446.70852613449097
aF447.71244597434998
aF448.71636915206909
aF449.71932196617126
aF450.72321009635925
aF451.72713208198547
aF452.73107194900513
aF453.73497414588928
aF454.73889493942261
aF455.7428150177002
aF456.74675893783569
aF457.75065493583679
aF458.75457715988159
aF459.75849795341492
aF460.76241993904114
aF461.76634097099304
aF462.77026200294495
aF463.77418398857117
aF464.77740097045898
aF465.78117609024048
aF466.78494501113892
aF467.78851103782654
aF468.79254293441772
aF469.79635310173035
aF470.80063199996948
aF471.80454993247986
aF472.80847311019897
aF473.81239104270935
aF474.81631207466125
aF475.82023406028748
aF476.82415199279785
aF477.828045129776
aF478.8310170173645
aF479.83491706848145
aF480.8388409614563
aF481.84277415275574
aF482.84668612480164
aF483.85059809684753
aF484.85452795028687
aF485.85827398300171
aF486.86236214637756
aF487.8662850856781
aF488.87020397186279
aF489.87412810325623
aF490.87804698944092
aF491.88140106201172
aF492.88488793373108
aF493.88880896568298
aF494.8927309513092
aF495.89665603637695
aF496.9005970954895
aF497.9044930934906
aF498.90845012664795
aF499.91233396530151
aF500.91625499725342
aF501.92018413543701
aF502.92409896850586
aF503.92801904678345
aF504.93148303031921
aF505.93486404418945
aF506.93878197669983
aF507.94271492958069
aF508.94612598419189
aF509.94915795326233
aF510.95346212387085
aF511.9573860168457
aF512.96131014823914
aF513.96520805358887
aF514.96871399879456
aF515.97207093238831
aF516.97599101066589
aF517.97991514205933
aF518.98401093482971
aF519.98775601387024
aF520.99168109893799
aF521.99559593200684
aF522.99951910972595
aF524.00343894958496
aF525.00736308097839
aF526.01128005981445
aF527.01520299911499
aF528.01912307739258
aF529.02305507659912
aF530.0269730091095
aF531.03088593482971
aF532.03480696678162
aF533.03873896598816
aF534.04264712333679
aF535.04657316207886
aF536.04969096183777
aF537.05341196060181
aF538.05733013153076
aF539.06125211715698
aF540.06517505645752
aF541.06909394264221
aF542.07301712036133
aF543.07635998725891
aF544.07985806465149
aF545.08377909660339
aF546.08771109580994
aF547.09161996841431
aF548.09553909301758
aF549.09946513175964
aF550.10266804695129
aF551.10630393028259
aF552.11023116111755
aF553.11414313316345
aF554.11806797981262
aF555.12198805809021
aF556.1259081363678
aF557.12982702255249
aF558.13367700576782
aF559.13767194747925
aF560.1414749622345
aF561.14551210403442
aF562.14947700500488
aF563.15336203575134
aF564.15728211402893
aF565.16119694709778
aF566.16512203216553
aF567.16903805732727
aF568.17296409606934
aF569.17688012123108
aF570.17997312545776
aF571.18372702598572
aF572.18764495849609
aF573.19156908988953
aF574.19516015052795
aF575.19858193397522
aF576.20233011245728
aF577.20624899864197
aF578.2097110748291
aF579.21309208869934
aF580.21701407432556
aF581.22093200683594
aF582.22485399246216
aF583.22877407073975
aF584.2326979637146
aF585.23661804199219
aF586.24053812026978
aF587.24445915222168
aF588.248379945755
aF589.25204610824585
aF590.2557680606842
aF591.25914597511292
aF592.26310110092163
aF593.26698398590088
aF594.27090406417847
aF595.27457213401794
aF596.27875709533691
aF597.28268504142761
aF598.28659296035767
aF599.29050993919373
aF600.2936749458313
aF601.2973461151123
aF602.30127501487732
aF603.30519104003906
aF604.30827903747559
aF605.31203508377075
aF606.31596112251282
aF607.31987595558167
aF608.32380294799805
aF609.32772207260132
aF610.33164000511169
aF611.33571910858154
aF612.33948397636414
aF613.34340405464172
aF614.34737205505371
aF615.35124397277832
aF616.35516715049744
aF617.35908699035645
aF618.36300706863403
aF619.36693215370178
aF620.37085103988647
aF621.37477993965149
aF622.37870001792908
aF623.38261413574219
aF624.38653206825256
aF625.39045405387878
aF626.39437699317932
aF627.3982949256897
aF628.4022171497345
aF629.40613794326782
aF630.41005802154541
aF631.413978099823
aF632.41790914535522
aF633.42182302474976
aF634.42574405670166
aF635.42967200279236
aF636.43358302116394
aF637.43750596046448
aF638.4414279460907
aF639.44534611701965
aF640.44926714897156
aF641.45318603515625
aF642.4571099281311
aF643.46102905273438
aF644.4649600982666
aF645.4688720703125
aF646.4727931022644
aF647.47671413421631
aF648.48063492774963
aF649.48455810546875
aF650.48847699165344
aF651.49239802360535
aF652.49631595611572
aF653.50024008750916
aF654.50415992736816
aF655.50808095932007
aF656.51200199127197
aF657.51592397689819
aF658.51984405517578
aF659.52380704879761
aF660.52768611907959
aF661.53161311149597
aF662.53553700447083
aF663.53944706916809
aF664.54337000846863
aF665.54729199409485
aF666.55121207237244
aF667.55513215065002
aF668.55905294418335
aF669.56297492980957
aF670.56689715385437
aF671.57081604003906
aF672.57474803924561
aF673.57865905761719
aF674.58258008956909
aF675.5864999294281
aF676.59042000770569
aF677.59434294700623
aF678.59826397895813
aF679.6021900177002
aF680.60598707199097
aF681.61002993583679
aF682.61395692825317
aF683.61787009239197
aF684.62179112434387
aF685.62571001052856
aF686.62963104248047
aF687.63354992866516
aF688.63746905326843
aF689.64139413833618
aF690.64531397819519
aF691.64923405647278
aF692.65315914154053
aF693.65707397460938
aF694.66099309921265
aF695.66489696502686
aF696.66884613037109
aF697.67276811599731
aF698.67668414115906
aF699.68060302734375
aF700.68452215194702
aF701.68844604492188
aF702.69236612319946
aF703.69628405570984
aF704.70021510124207
aF705.70412802696228
aF706.70804595947266
aF707.71197009086609
aF708.71589207649231
aF709.71981811523438
aF710.72373509407043
aF711.72765302658081
aF712.73157405853271
aF713.73549699783325
aF714.73941993713379
aF715.74333810806274
aF716.74726104736328
aF717.75118613243103
aF718.75510096549988
aF719.7590229511261
aF720.76294207572937
aF721.76686906814575
aF722.77078604698181
aF723.77471208572388
aF724.77862501144409
aF725.78169012069702
aF726.78547596931458
aF727.78939008712769
aF728.79330801963806
aF729.79723000526428
aF730.8011519908905
aF731.80507302284241
aF732.80899500846863
aF733.81291508674622
aF734.81768703460693
aF735.82175898551941
aF736.82567715644836
aF737.83255696296692
aF738.83652114868164
aF739.84044003486633
aF740.84436011314392
aF741.84828305244446
aF742.85220313072205
aF743.85612201690674
aF744.86004114151001
aF745.8639669418335
aF746.86789298057556
aF747.87180495262146
aF748.87573003768921
aF749.87964916229248
aF750.88356995582581
aF751.88749313354492
aF752.89141702651978
aF753.89533400535583
aF754.89925098419189
aF755.90315294265747
aF756.9070999622345
aF757.91102194786072
aF758.91494107246399
aF759.91886115074158
aF760.92278099060059
aF761.92671513557434
aF762.93062305450439
aF763.93454003334045
aF764.93846607208252
aF765.94241499900818
aF766.94630813598633
aF767.95012402534485
aF768.95370411872864
aF769.95707011222839
aF770.96098899841309
aF771.96490812301636
aF772.96883201599121
aF773.9727520942688
aF774.97668099403381
aF775.98059606552124
aF776.98451495170593
aF777.98843598365784
aF778.99235606193542
aF779.99644708633423
aF781.00019907951355
aF782.00412607192993
aF783.00804615020752
aF784.01196098327637
aF785.01588201522827
aF786.01980495452881
aF787.02372694015503
aF788.0276460647583
aF789.03160715103149
aF790.03549003601074
aF791.03940916061401
aF792.04333710670471
aF793.04725003242493
aF794.05117607116699
aF795.05509400367737
aF796.05901193618774
aF797.06293892860413
aF798.06685495376587
aF799.0707859992981
aF800.07470607757568
aF801.07861709594727
aF802.08254098892212
aF803.08650708198547
aF804.09038114547729
aF805.09430193901062
aF806.09725999832153
aF807.10114502906799
aF808.10506200790405
aF809.1089870929718
aF810.11290597915649
aF811.11683297157288
aF812.1207480430603
aF813.12466812133789
aF814.1285879611969
aF815.13251399993896
aF816.13643193244934
aF817.14035415649414
aF818.14427208900452
aF819.14819502830505
aF820.15211606025696
aF821.15603494644165
aF822.15995693206787
aF823.16387510299683
aF824.16779708862305
aF825.1717209815979
aF826.17564105987549
aF827.17956209182739
aF828.1834819316864
aF829.18740916252136
aF830.19132614135742
aF831.19524598121643
aF832.1988160610199
aF833.20308995246887
aF834.20701098442078
aF835.21093010902405
aF836.21484994888306
aF837.2187819480896
aF838.22270703315735
aF839.22661209106445
aF840.23053193092346
aF841.23446202278137
aF842.23837494850159
aF843.24229693412781
aF844.2462170124054
aF845.2501380443573
aF846.25406408309937
aF847.25798106193542
aF848.2618989944458
aF849.26582193374634
aF850.26974296569824
aF851.27367401123047
aF852.27758407592773
aF853.28050708770752
aF854.2844250202179
aF855.28834509849548
aF856.29226899147034
aF857.29618811607361
aF858.30011510848999
aF859.30403113365173
aF860.30795192718506
aF861.31187200546265
aF862.31579494476318
aF863.3197181224823
aF864.32363796234131
aF865.32755899429321
aF866.33148002624512
aF867.33540010452271
aF868.33932209014893
aF869.34324193000793
aF870.34716701507568
aF871.35108399391174
aF872.35500311851501
aF873.35892510414124
aF874.36284708976746
aF875.36678004264832
aF876.37070798873901
aF877.37460994720459
aF878.37853407859802
aF879.38168096542358
aF880.38537406921387
aF881.38929510116577
aF882.39321708679199
aF883.39713311195374
aF884.40105414390564
aF885.40497994422913
aF886.4088990688324
aF887.41282606124878
aF888.41673898696899
aF889.42066502571106
aF890.42458200454712
aF891.42850208282471
aF892.43242406845093
aF893.43634605407715
aF894.44026494026184
aF895.44418907165527
aF896.44810700416565
aF897.45203113555908
aF898.45595097541809
aF899.45987915992737
aF900.46378993988037
aF901.46771502494812
aF902.47163200378418
aF903.47555708885193
aF904.47947692871094
aF905.48339605331421
aF906.48731994628906
aF907.4912440776825
aF908.49515914916992
aF909.49908113479614
aF910.50300312042236
aF911.50693202018738
aF912.51084399223328
aF913.51477694511414
aF914.51869201660156
aF915.52260494232178
aF916.526526927948
aF917.52967596054077
aF918.53336596488953
aF919.53729009628296
aF920.54120993614197
aF921.5451340675354
aF922.5490550994873
aF923.55580711364746
aF924.55993914604187
aF925.56381893157959
aF926.56801104545593
aF927.57164096832275
aF928.57482314109802
aF929.57853603363037
aF930.58242106437683
aF931.58636593818665
aF932.59026193618774
aF933.5941150188446
aF934.59811615943909
aF935.60167694091797
aF936.6056809425354
aF937.60988211631775
aF938.61368298530579
aF939.61771202087402
aF940.6216299533844
aF941.62554502487183
aF942.62947201728821
aF943.63338899612427
aF944.63731002807617
aF945.64123106002808
aF946.64515614509583
aF947.64907813072205
aF948.65299105644226
aF949.65691494941711
aF950.66083693504333
aF951.66475415229797
aF952.66868209838867
aF953.67261004447937
aF954.67652201652527
aF955.68044114112854
aF956.68436312675476
aF957.68779397010803
aF958.69120502471924
aF959.69512915611267
aF960.69904398918152
aF961.70296406745911
aF962.70688796043396
aF963.71080899238586
aF964.71473813056946
aF965.71864295005798
aF966.72256898880005
aF967.726487159729
aF968.73040509223938
aF969.73447799682617
aF970.73826503753662
aF971.74217796325684
aF972.74609804153442
aF973.75002002716064
aF974.75393605232239
aF975.75767993927002
aF976.76178598403931
aF977.76570701599121
aF978.76962399482727
aF979.77354598045349
aF980.77750515937805
aF981.78139615058899
aF982.78531813621521
aF983.7892701625824
aF984.79314804077148
aF985.79706811904907
aF986.80098915100098
aF987.80491209030151
aF988.80882811546326
aF989.81275510787964
aF990.81667399406433
aF991.82059407234192
aF992.82451510429382
aF993.82843804359436
aF994.83237409591675
aF995.83628296852112
aF996.84020304679871
aF997.84412312507629
aF998.84805297851562
aF999.85199308395386
aF1000.8559250831604
aF1001.8598201274872
aF1002.8634941577911
aF1003.8676519393921
aF1004.8715710639954
aF1005.8754930496216
aF1006.8796370029449
aF1007.8833270072937
aF1008.8872480392456
aF1009.891165971756
aF1010.8950879573822
aF1011.899022102356
aF1012.9029331207275
aF1013.9068839550018
aF1014.9109380245209
aF1015.9137351512909
aF1016.9176280498505
aF1017.9215440750122
aF1018.9254629611969
aF1019.9293899536133
aF1020.9333069324493
aF1021.9372270107269
aF1022.941143989563
aF1023.9450709819794
aF1024.9490120410919
aF1025.9529049396515
aF1026.9568300247192
aF1027.9607520103455
aF1028.9646711349487
aF1029.9686000347137
aF1030.9725151062012
aF1031.9764361381531
aF1032.9803559780121
aF1033.9842939376831
aF1034.9882030487061
aF1035.992124080658
aF1036.9960379600525
aF1037.9999630451202
aF1039.0038771629333
aF1040.0077979564667
aF1041.0117180347443
aF1042.0156469345093
aF1043.0195660591125
aF1044.0234839916229
aF1045.0274021625519
aF1046.0313210487366
aF1047.0352530479431
aF1048.0391750335693
aF1049.0430941581726
aF1050.047021150589
aF1051.0509340763092
aF1052.0548729896545
aF1053.0587811470032
aF1054.0627219676971
aF1055.0666069984436
aF1056.0705411434174
aF1057.0744590759277
aF1058.0783791542053
aF1059.0824270248413
aF1060.0856850147247
aF1061.0892210006714
aF1062.0930640697479
aF1063.0969879627228
aF1064.1009120941162
aF1065.1048290729523
aF1066.1087629795074
aF1067.1126749515533
aF1068.1166181564331
aF1069.1204950809479
aF1070.1244659423828
aF1071.1283550262451
aF1072.1322829723358
aF1073.1361980438232
aF1074.1401181221008
aF1075.1440880298615
aF1076.1479971408844
aF1077.1519129276276
aF1078.1558001041412
aF1079.1597509384155
aF1080.163810968399
aF1081.1676361560822
aF1082.1710510253906
aF1083.173709154129
aF1084.1773951053619
aF1085.1813189983368
aF1086.1846899986267
aF1087.1881320476532
aF1088.192008972168
aF1089.1959431171417
aF1090.1998760700226
aF1091.2037770748138
aF1092.2076930999756
aF1093.2116601467133
aF1094.2155411243439
aF1095.2188611030579
aF1096.2218520641327
aF1097.2253000736237
aF1098.2292160987854
aF1099.2331359386444
aF1100.2370550632477
aF1101.2429220676422
aF1102.2469050884247
aF1103.2508249282837
aF1104.2547550201416
aF1105.2578401565552
aF1106.2615859508514
aF1107.2655079364777
aF1108.2694301605225
aF1109.2733509540558
aF1110.2772700786591
aF1111.2811901569366
aF1112.2851071357727
aF1113.2890310287476
aF1114.2929539680481
aF1115.2968759536743
aF1116.3007950782776
aF1117.304722070694
aF1118.3086440563202
aF1119.3125729560852
aF1120.316477060318
aF1121.3204081058502
aF1122.3244071006775
aF1123.3282451629639
aF1124.3321659564972
aF1125.3356120586395
aF1126.3416800498962
aF1127.345685005188
aF1128.3496799468994
aF1129.3537859916687
aF1130.3576810359955
aF1131.362636089325
aF1132.366532087326
aF1133.3706760406494
aF1134.3743600845337
aF1135.3777780532837
aF1136.3866770267487
aF1137.3901269435883
aF1138.3940451145172
aF1139.3979680538177
aF1140.4055910110474
aF1141.4098081588745
aF1142.4186770915985
aF1143.4236760139465
aF1144.4275829792023
aF1145.4315021038055
aF1146.4354381561279
aF1147.439355134964
aF1148.4432649612427
aF1149.4471981525421
aF1150.4511051177979
aF1151.4550240039825
aF1152.4590220451355
aF1153.4628601074219
aF1154.4667799472809
aF1155.4707169532776
aF1156.4736740589142
aF1157.4775590896606
aF1158.4814751148224
aF1159.4853889942169
aF1160.4893219470978
aF1161.493243932724
aF1162.4971730709076
aF1163.5011401176453
aF1164.5049991607666
aF1165.508917093277
aF1166.5128350257874
aF1167.5167610645294
aF1168.5206820964813
aF1169.5245940685272
aF1170.5285120010376
aF1171.5324420928955
aF1172.5364339351654
aF1173.5402879714966
aF1174.5442080497742
aF1175.5481390953064
aF1176.552050113678
aF1177.555969953537
aF1178.5598909854889
aF1179.5638151168823
aF1180.5677371025085
aF1181.5716619491577
aF1182.5756430625916
aF1183.5794999599457
aF1184.583428144455
aF1185.5873410701752
aF1186.5912661552429
aF1187.5951840877533
aF1188.5990171432495
aF1189.6030750274658
aF1190.6069490909576
aF1191.6102869510651
aF1192.6137869358063
aF1193.6177060604095
aF1194.621621131897
aF1195.6255490779877
aF1196.6294701099396
aF1197.6333949565887
aF1198.6373069286346
aF1199.6402690410614
aF1200.644140958786
aF1201.6480889320374
aF1202.6519930362701
aF1203.6559109687805
aF1204.659835100174
aF1205.6637620925903
aF1206.6676769256592
aF1207.6707940101624
aF1208.6745200157166
aF1209.6784429550171
aF1210.6823630332947
aF1211.6856820583344
aF1212.6893789768219
aF1213.6931309700012
aF1214.6970460414886
aF1215.7009539604187
aF1216.7049050331116
aF1217.7088141441345
aF1218.7127370834351
aF1219.7166590690613
aF1220.7205770015717
aF1221.7237250804901
aF1222.7274241447449
aF1223.7313599586487
aF1224.7347509860992
aF1225.7382221221924
aF1226.7422311306
aF1227.7460200786591
aF1228.7499430179596
aF1229.7536251544952
aF1230.7576789855957
aF1231.7617170810699
aF1232.765625
aF1233.7695460319519
aF1234.7734661102295
aF1235.7773880958557
aF1236.7812991142273
aF1237.785227060318
aF1238.7891490459442
aF1239.7930700778961
aF1240.7969851493835
aF1241.8009059429169
aF1242.8048319816589
aF1243.8087539672852
aF1244.8126749992371
aF1245.8163261413574
aF1246.8205280303955
aF1247.8244299888611
aF1248.8275520801544
aF1249.8313000202179
aF1250.8352179527283
aF1251.8391449451447
aF1252.8431160449982
aF1253.8470439910889
aF1254.8508961200714
aF1255.8548121452332
aF1256.85875415802
aF1257.8626501560211
aF1258.8656799793243
aF1259.8695039749146
aF1260.873419046402
aF1261.8773419857025
aF1262.8812651634216
aF1263.8852009773254
aF1264.8890950679779
aF1265.8920500278473
aF1266.8959441184998
aF1267.89985704422
aF1268.9037840366364
aF1269.9076700210571
aF1270.9116339683533
aF1271.9155621528625
aF1272.9194869995117
aF1273.9233839511871
aF1274.9273080825806
aF1275.9312281608582
aF1276.9351470470428
aF1277.9390759468079
aF1278.9429919719696
aF1279.9469139575958
aF1280.9508371353149
aF1281.9545950889587
aF1282.9588010311127
aF1283.9625999927521
aF1284.9656751155853
aF1285.9694359302521
aF1286.9733560085297
aF1287.9772789478302
aF1288.9811949729919
aF1289.9851150512695
aF1290.9890370368958
aF1291.9930081367493
aF1292.9968791007996
aF1294.0008029937744
aF1295.0047221183777
aF1296.0086400508881
aF1297.0125639438629
aF1298.016499042511
aF1299.0204081535339
aF1300.0243279933929
aF1301.0282530784607
aF1302.0321781635284
aF1303.0360989570618
aF1304.0400171279907
aF1305.0439369678497
aF1306.047856092453
aF1307.0517771244049
aF1308.0556960105896
aF1309.0596210956573
aF1310.0635509490967
aF1311.0674600601196
aF1312.0713770389557
aF1313.0752999782562
aF1314.0792241096497
aF1315.08314204216
aF1316.087100982666
aF1317.090989112854
aF1318.094908952713
aF1319.0988299846649
aF1320.1027550697327
aF1321.1066710948944
aF1322.1106171607971
aF1323.114529132843
aF1324.1176950931549
aF1325.1213710308075
aF1326.1252779960632
aF1327.1292760372162
aF1328.1331300735474
aF1329.1370379924774
aF1330.1409690380096
aF1331.1449630260468
aF1332.148796081543
aF1333.1527190208435
aF1334.1562161445618
aF1335.1595630645752
aF1336.16348695755
aF1337.1674189567566
aF1338.1713380813599
aF1339.1752450466156
aF1340.1791620254517
aF1341.183089017868
aF1342.1870059967041
aF1343.190936088562
aF1344.1948549747467
aF1345.1987819671631
aF1346.2030329704285
aF1347.2066149711609
aF1348.2096800804138
aF1349.2134571075439
aF1350.217376947403
aF1351.2213020324707
aF1352.2252480983734
aF1353.2291390895844
aF1354.2330710887909
aF1355.2369840145111
aF1356.2409241199493
aF1357.2448239326477
aF1358.2487399578094
aF1359.2526741027832
aF1360.2565829753876
aF1361.2596249580383
aF1362.2634310722351
aF1363.2673480510712
aF1364.2712700366974
aF1365.2751910686493
aF1366.2791111469269
aF1367.2830309867859
aF1368.2869529724121
aF1369.2976090908051
aF1370.3017971515656
aF1371.3057210445404
aF1372.3096420764923
aF1373.3128719329834
aF1374.3164780139923
aF1375.3196921348572
aF1376.32333111763
aF1377.3270809650421
aF1378.3311641216278
aF1379.3351221084595
aF1380.3390100002289
aF1381.3429250717163
aF1382.3471660614014
aF1383.3507750034332
aF1384.3546950817108
aF1385.3586061000824
aF1386.3625330924988
aF1387.3664500713348
aF1388.3703701496124
aF1389.3733911514282
aF1390.3772151470184
aF1391.3811490535736
aF1392.3850531578064
aF1393.3889820575714
aF1394.3928940296173
aF1395.3968131542206
aF1396.4007360935211
aF1397.4046590328217
aF1398.4085829257965
aF1399.4125111103058
aF1400.4164199829102
aF1401.4203469753265
aF1402.4242660999298
aF1403.4281859397888
aF1404.4321031570435
aF1405.4360270500183
aF1406.4399621486664
aF1407.4438779354095
aF1408.4477910995483
aF1409.4517109394073
aF1410.4556360244751
aF1411.4597020149231
aF1412.4634721279144
aF1413.467395067215
aF1414.4713129997253
aF1415.4752340316772
aF1416.479012966156
aF1417.4830851554871
aF1418.486997127533
aF1419.4909200668335
aF1420.4948470592499
aF1421.4987709522247
aF1422.5026879310608
aF1423.5066030025482
aF1424.5105249881744
aF1425.514447927475
aF1426.5183651447296
aF1427.5222859382629
aF1428.5256769657135
aF1429.529128074646
aF1430.5330491065979
aF1431.5369710922241
aF1432.5408899784088
aF1433.5441610813141
aF1434.5477349758148
aF1435.5516669750214
aF1436.5555770397186
aF1437.5593960285187
aF1438.5634400844574
aF1439.5673561096191
aF1440.5712580680847
aF1441.5751791000366
aF1442.579108953476
aF1443.5830249786377
aF1444.586944103241
aF1445.5908870697021
aF1446.5947840213776
aF1447.5987160205841
aF1448.6026260852814
aF1449.606546163559
aF1450.6096789836884
aF1451.613391160965
aF1452.6173119544983
aF1453.6212339401245
aF1454.6251571178436
aF1455.6290781497955
aF1456.6373291015625
aF1457.6409211158752
aF1458.6448380947113
aF1459.6487579345703
aF1460.6526739597321
aF1461.6565990447998
aF1462.6605160236359
aF1463.6644401550293
aF1464.6684420108795
aF1465.6722891330719
aF1466.6762020587921
aF1467.6801271438599
aF1468.6840569972992
aF1469.6878249645233
aF1470.6918921470642
aF1471.6958060264587
aF1472.699728012085
aF1473.7036521434784
aF1474.7075741291046
aF1475.7114961147308
aF1476.7154159545898
aF1477.7193350791931
aF1478.7232570648193
aF1479.7268080711365
aF1480.7307140827179
aF1481.7350239753723
aF1482.7389500141144
aF1483.742861032486
aF1484.746796131134
aF1485.7507081031799
aF1486.7546370029449
aF1487.7585461139679
aF1488.7624759674072
aF1489.7664029598236
aF1490.7696759700775
aF1491.773227930069
aF1492.7770590782166
aF1493.7810759544373
aF1494.7849910259247
aF1495.7889151573181
aF1496.7928400039673
aF1497.7967529296875
aF1498.8006870746613
aF1499.8046100139618
aF1500.8078150749207
aF1501.811448097229
aF1502.8153581619263
aF1503.8192789554596
aF1504.823203086853
aF1505.8271250724792
aF1506.8310430049896
aF1507.8349709510803
aF1508.8388819694519
aF1509.8428061008453
aF1510.8467381000519
aF1511.8506510257721
aF1512.8545711040497
aF1513.8585519790649
aF1514.8618359565735
aF1515.8653090000153
aF1516.8692500591278
aF1517.8731679916382
aF1518.8771560192108
aF1519.8810160160065
aF1520.8849909305573
aF1521.8879311084747
aF1522.8917820453644
aF1523.8956990242004
aF1524.8996210098267
aF1525.9035530090332
aF1526.9071619510651
aF1527.9113900661469
aF1528.9153020381927
aF1529.9192049503326
aF1530.9231460094452
aF1531.9270899295807
aF1532.9309871196747
aF1533.9349091053009
aF1534.9388301372528
aF1535.9417901039124
aF1536.9456729888916
aF1537.9495930671692
aF1538.9535150527954
aF1539.9574630260468
aF1540.9613580703735
aF1541.9652841091156
aF1542.9682049751282
aF1543.9721510410309
aF1544.9760811328888
aF1545.9799721240997
aF1546.9838809967041
aF1547.9877989292145
aF1548.9917230606079
aF1549.9956469535828
aF1550.999566078186
aF1552.0029280185699
aF1553.0064079761505
aF1554.0095160007477
aF1555.0132479667664
aF1556.0171649456024
aF1557.0207259654999
aF1558.0250101089478
aF1559.0281491279602
aF1560.0318579673767
aF1561.0357720851898
aF1562.0396921634674
aF1563.0436160564423
aF1564.047534942627
aF1565.0514581203461
aF1566.0553810596466
aF1567.0586421489716
aF1568.0622320175171
aF1569.0656881332397
aF1570.0690820217133
aF1571.0729880332947
aF1572.0769071578979
aF1573.0808300971985
aF1574.0847480297089
aF1575.0886991024017
aF1576.0925900936127
aF1577.0965089797974
aF1578.0999369621277
aF1579.1033699512482
aF1580.1064400672913
aF1581.1096889972687
aF1582.112174987793
aF1583.1160380840302
aF1584.1200361251831
aF1585.1238789558411
aF1586.1277980804443
aF1587.1316680908203
aF1588.1356430053711
aF1589.1395599842072
aF1590.1434810161591
aF1591.1474051475525
aF1592.1514849662781
aF1593.1552729606628
aF1594.159166097641
aF1595.1630840301514
aF1596.1670031547546
aF1597.1709280014038
aF1598.1748490333557
aF1599.1787919998169
aF1600.1824431419373
aF1601.1866140365601
aF1602.190544128418
aF1603.194452047348
aF1604.1976780891418
aF1605.201297044754
aF1606.2052271366119
aF1607.209135055542
aF1608.2130601406097
aF1609.2169799804688
aF1610.2206370830536
aF1611.2248220443726
aF1612.2287421226501
aF1613.2326619625092
aF1614.2365889549255
aF1615.2405281066895
aF1616.2439939975739
aF1617.2473499774933
aF1618.251284122467
aF1619.2551910877228
aF1620.2591331005096
aF1621.2630341053009
aF1622.2669579982758
aF1623.2708730697632
aF1624.2748069763184
aF1625.2787499427795
aF1626.2826671600342
aF1627.2865769863129
aF1628.289675951004
aF1629.2934279441833
aF1630.2973189353943
aF1631.3012459278107
aF1632.3051681518555
aF1633.3090970516205
aF1634.3130040168762
aF1635.3169219493866
aF1636.320858001709
aF1637.3247909545898
aF1638.3286859989166
aF1639.3326001167297
aF1640.336531162262
aF1641.3404660224915
aF1642.3443880081177
aF1643.3482949733734
aF1644.3522181510925
aF1645.3565509319305
aF1646.3603041172028
aF1647.3639810085297
aF1648.3678951263428
aF1649.3718640804291
aF1650.3757569789886
aF1651.3796660900116
aF1652.383584022522
aF1653.387501001358
aF1654.3914210796356
aF1655.395348072052
aF1656.3992750644684
aF1657.4031901359558
aF1658.4071259498596
aF1659.411071062088
aF1660.4149589538574
aF1661.4188480377197
aF1662.4228010177612
aF1663.4264569282532
aF1664.4306399822235
aF1665.4345519542694
aF1666.4377470016479
aF1667.4413959980011
aF1668.4461550712585
aF1669.4502370357513
aF1670.4541659355164
aF1671.4580800533295
aF1672.4616811275482
aF1673.4659259319305
aF1674.4696810245514
aF1675.4736750125885
aF1676.4776811599731
aF1677.4816009998322
aF1678.4855310916901
aF1679.4894580841064
aF1680.4927101135254
aF1681.4962890148163
aF1682.4999971389771
aF1683.5041289329529
aF1684.5073521137238
aF1685.5109951496124
aF1686.5149121284485
aF1687.5188570022583
aF1688.5227451324463
aF1689.5256769657135
aF1690.5285789966583
aF1691.5325040817261
aF1692.5364229679108
aF1693.5403389930725
aF1694.5442681312561
aF1695.548180103302
aF1696.5521011352539
aF1697.5560240745544
aF1698.5599429607391
aF1699.563863992691
aF1700.5677831172943
aF1701.5717091560364
aF1702.5756311416626
aF1703.5795481204987
aF1704.5834760665894
aF1705.5873930454254
aF1706.5913240909576
aF1707.5952451229095
aF1708.5991990566254
aF1709.6030740737915
aF1710.6070001125336
aF1711.6109359264374
aF1712.6146709918976
aF1713.6187651157379
aF1714.6216781139374
aF1715.6256051063538
aF1716.6295189857483
aF1717.6334421634674
aF1718.6373641490936
aF1719.641294002533
aF1720.6452050209045
aF1721.6483850479126
aF1722.6520569324493
aF1723.6559691429138
aF1724.6590769290924
aF1725.6628119945526
aF1726.6670880317688
aF1727.6706540584564
aF1728.674574136734
aF1729.6784949302673
aF1730.6824150085449
aF1731.6863329410553
aF1732.6902639865875
aF1733.6941759586334
aF1734.6981010437012
aF1735.7016799449921
aF1736.7059409618378
aF1737.7098610401154
aF1738.7137880325317
aF1739.7177000045776
aF1740.7216260433197
aF1741.7255420684814
aF1742.7294631004333
aF1743.7333850860596
aF1744.7373061180115
aF1745.7412240505219
aF1746.7451491355896
aF1747.7490799427032
aF1748.7529909610748
aF1749.7569160461426
aF1750.7608330249786
aF1751.7647531032562
aF1752.7686791419983
aF1753.7725989818573
aF1754.776515007019
aF1755.7804379463196
aF1756.7843570709229
aF1757.7882781028748
aF1758.7922029495239
aF1759.796128988266
aF1760.8000481128693
aF1761.8039679527283
aF1762.8078870773315
aF1763.8118081092834
aF1764.8157300949097
aF1765.8196589946747
aF1766.8235690593719
aF1767.8274929523468
aF1768.8314099311829
aF1769.835333108902
aF1770.8392570018768
aF1771.8431911468506
aF1772.8471031188965
aF1773.8504500389099
aF1774.8539681434631
aF1775.8578560352325
aF1776.8617830276489
aF1777.8656980991364
aF1778.8696300983429
aF1779.8735389709473
aF1780.8770091533661
aF1781.8803870677948
aF1782.884309053421
aF1783.8882329463959
aF1784.8921549320221
aF1785.8960621356964
aF1786.8999869823456
aF1787.9039180278778
aF1788.9078330993652
aF1789.9117569923401
aF1790.9156711101532
aF1791.9195921421051
aF1792.9235169887543
aF1793.927323102951
aF1794.9313580989838
aF1795.9352779388428
aF1796.9392001628876
aF1797.9431180953979
aF1798.9470369815826
aF1799.9509520530701
aF1800.9548561573029
aF1801.9588010311127
aF1802.9627621173859
aF1803.9666409492493
aF1804.9705641269684
aF1805.9744861125946
aF1806.978404045105
aF1807.9823269844055
aF1808.9862489700317
aF1809.9902379512787
aF1810.9940900802612
aF1811.9980490207672
aF1813.0019409656525
aF1814.0058529376984
aF1815.0097720623016
aF1816.013699054718
aF1817.0176141262054
aF1818.0215449333191
aF1819.0254609584808
aF1820.0293841362
aF1821.0332989692688
aF1822.0365600585938
aF1823.0401530265808
aF1824.044065952301
aF1825.04798412323
aF1826.0519030094147
aF1827.0558249950409
aF1828.0597491264343
aF1829.0636720657349
aF1830.0675871372223
aF1831.0715069770813
aF1832.0754289627075
aF1833.0793509483337
aF1834.08327293396
aF1835.0872371196747
aF1836.0911099910736
aF1837.0950100421906
aF1838.0989589691162
aF1839.1029260158539
aF1840.1058840751648
aF1841.1097221374512
aF1842.1136391162872
aF1843.1175589561462
aF1844.1214809417725
aF1845.1254029273987
aF1846.1293239593506
aF1847.1332621574402
aF1848.1371691226959
aF1849.141086101532
aF1850.1450049877167
aF1851.1489260196686
aF1852.1528561115265
aF1853.1567800045013
aF1854.1599581241608
aF1855.1634130477905
aF1856.1675341129303
aF1857.1714570522308
aF1858.174812078476
aF1859.1780240535736
aF1860.1822080612183
aF1861.1861319541931
aF1862.1900601387024
aF1863.1935119628906
aF1864.1969029903412
aF1865.2008190155029
aF1866.2053279876709
aF1867.2086651325226
aF1868.2125871181488
aF1869.2165100574493
aF1870.220468044281
aF1871.2236571311951
aF1872.2272679805756
aF1873.2312209606171
aF1874.2351160049438
aF1875.2390370368958
aF1876.2429530620575
aF1877.2468709945679
aF1878.2507960796356
aF1879.2547249794006
aF1880.2586390972137
aF1881.2625551223755
aF1882.2657740116119
aF1883.2693989276886
aF1884.2733240127563
aF1885.2772459983826
aF1886.2811660766602
aF1887.2850830554962
aF1888.2890031337738
aF1889.2929220199585
aF1890.2968461513519
aF1891.3007769584656
aF1892.3045899868011
aF1893.3086090087891
aF1894.3125309944153
aF1895.3164489269257
aF1896.3203721046448
aF1897.3243119716644
aF1898.3282110691071
aF1899.3321330547333
aF1900.3358130455017
aF1901.3399829864502
aF1902.3439090251923
aF1903.3478281497955
aF1904.3517389297485
aF1905.3556590080261
aF1906.3595809936523
aF1907.3635020256042
aF1908.3674280643463
aF1909.3713450431824
aF1910.3752629756927
aF1911.3791880607605
aF1912.3831081390381
aF1913.3870320320129
aF1914.3909561634064
aF1915.3948810100555
aF1916.3980431556702
aF1917.4017109870911
aF1918.4056360721588
aF1919.4095561504364
aF1920.4134819507599
aF1921.4173929691315
aF1922.4213161468506
aF1923.4252769947052
aF1924.4283690452576
aF1925.4320781230927
aF1926.4360020160675
aF1927.4399170875549
aF1928.4430129528046
aF1929.4467771053314
aF1930.4506931304932
aF1931.4546060562134
aF1932.4585220813751
aF1933.4616799354553
aF1934.4653971195221
aF1935.469288110733
aF1936.4732069969177
aF1937.4770309925079
aF1938.4810521602631
aF1939.4849741458893
aF1940.4889099597931
aF1941.4928131103516
aF1942.4967341423035
aF1943.5006530284882
aF1944.5043730735779
aF1945.5085079669952
aF1946.5124170780182
aF1947.5163359642029
aF1948.520271062851
aF1949.5241820812225
aF1950.5281000137329
aF1951.5320210456848
aF1952.5358929634094
aF1953.5398671627045
aF1954.5437841415405
aF1955.5477080345154
aF1956.5516271591187
aF1957.5555500984192
aF1958.5594711303711
aF1959.5633909702301
aF1960.5673220157623
aF1961.5712311267853
aF1962.5751531124115
aF1963.5790741443634
aF1964.5826480388641
aF1965.5869209766388
aF1966.5905940532684
aF1967.5947690010071
aF1968.5986840724945
aF1969.6017079353333
aF1970.605523109436
aF1971.6094441413879
aF1972.6127450466156
aF1973.6162841320038
aF1974.6202049255371
aF1975.6241271495819
aF1976.6280519962311
aF1977.6319811344147
aF1978.6358859539032
aF1979.6398129463196
aF1980.6430299282074
aF1981.6466519832611
aF1982.650584936142
aF1983.6536769866943
aF1984.6564221382141
aF1985.6603381633759
aF1986.6636559963226
aF1987.667179107666
aF1988.6711001396179
aF1989.6750180721283
aF1990.6789381504059
aF1991.6827690601349
aF1992.6863400936127
aF1993.6897101402283
aF1994.6936230659485
aF1995.6975409984589
aF1996.7014670372009
aF1997.7053971290588
aF1998.7093110084534
aF1999.7132270336151
aF2000.7171490192413
aF2001.7210659980774
aF2002.7249989509583
aF2003.7289171218872
aF2004.7328369617462
aF2005.736752986908
aF2006.7398030757904
aF2007.743597984314
aF2008.7475230693817
aF2009.7516169548035
aF2010.7553601264954
aF2011.7592899799347
aF2012.7632009983063
aF2013.7671251296997
aF2014.7710449695587
aF2015.7749769687653
aF2016.7788829803467
aF2017.7828040122986
aF2018.7867040634155
aF2019.7903320789337
aF2020.7945799827576
aF2021.7983839511871
aF2022.8024110794067
aF2023.806333065033
aF2024.810259103775
aF2025.8141829967499
aF2026.8180990219116
aF2027.822016954422
aF2028.825935125351
aF2029.8298599720001
aF2030.8336811065674
aF2031.8376979827881
aF2032.84161901474
aF2033.8455481529236
aF2034.8494601249695
aF2035.85338306427
aF2036.8573031425476
aF2037.8612310886383
aF2038.8651421070099
aF2039.8690731525421
aF2040.8729889392853
aF2041.876904964447
aF2042.8808720111847
aF2043.8847489356995
aF2044.8886780738831
aF2045.8925909996033
aF2046.8965110778809
aF2047.9004321098328
aF2048.9043531417847
aF2049.9082770347595
aF2050.9122009277344
aF2051.9161150455475
aF2052.9200460910797
aF2053.9239580631256
aF2054.9278900623322
aF2055.9318101406097
aF2056.9357359409332
aF2057.9396450519562
aF2058.9435651302338
aF2059.9474890232086
aF2060.9514131546021
aF2061.9553279876709
aF2062.9592571258545
aF2063.9631690979004
aF2064.9670901298523
aF2065.9710121154785
aF2066.9749331474304
aF2067.9788510799408
aF2068.9827790260315
aF2069.9866850376129
aF2070.9896831512451
aF2071.9935390949249
aF2072.9974610805511
aF2074.0013859272003
aF2075.0052990913391
aF2076.0093131065369
aF2077.0131421089172
aF2078.0170609951019
aF2079.0209839344025
aF2080.0249080657959
aF2081.0288259983063
aF2082.0327551364899
aF2083.0366749763489
aF2084.040589094162
aF2085.044506072998
aF2086.0484390258789
aF2087.0523121356964
aF2088.0561921596527
aF2089.0601930618286
aF2090.0641100406647
aF2091.0680370330811
aF2092.071958065033
aF2093.0758790969849
aF2094.0797970294952
aF2095.0837211608887
aF2096.0876710414886
aF2097.0915610790253
aF2098.095489025116
aF2099.099415063858
aF2100.1033220291138
asS'ctl_val'
p6
F191.25
sS't_stop'
p7
F2100
sS'pwm_period'
p8
F1
sS't_on'
p9
F100
sS'dt'
p10
F1
sS'ctl_list'
p11
(lp12
F0
aF0
aF0
aF0
aF0
aF0
aF0
aF0
aF0
aF0
aF0
aF0
aF0
aF0
aF0
aF0
aF0
aF0
aF0
aF0
aF0
aF0
aF0
aF0
aF0
aF0
aF0
aF0
aF0
aF0
aF0
aF0
aF0
aF0
aF0
aF0
aF0
aF0
aF0
aF0
aF0
aF0
aF0
aF0
aF0
aF0
aF0
aF0
aF0
aF0
aF0
aF0
aF0
aF0
aF0
aF0
aF0
aF0
aF0
aF0
aF0
aF0
aF0
aF0
aF0
aF0
aF0
aF0
aF0
aF0
aF0
aF0
aF0
aF0
aF0
aF0
aF0
aF0
aF0
aF0
aF0
aF0
aF0
aF0
aF0
aF0
aF0
aF0
aF0
aF0
aF0
aF0
aF0
aF0
aF0
aF0
aF0
aF0
aF0
aF0
aF0
aF191.25
aF191.25
aF191.25
aF191.25
aF191.25
aF191.25
aF191.25
aF191.25
aF191.25
aF191.25
aF191.25
aF191.25
aF191.25
aF191.25
aF191.25
aF191.25
aF191.25
aF191.25
aF191.25
aF191.25
aF191.25
aF191.25
aF191.25
aF191.25
aF191.25
aF191.25
aF191.25
aF191.25
aF191.25
aF191.25
aF191.25
aF191.25
aF191.25
aF191.25
aF191.25
aF191.25
aF191.25
aF191.25
aF191.25
aF191.25
aF191.25
aF191.25
aF191.25
aF191.25
aF191.25
aF191.25
aF191.25
aF191.25
aF191.25
aF191.25
aF191.25
aF191.25
aF191.25
aF191.25
aF191.25
aF191.25
aF191.25
aF191.25
aF191.25
aF191.25
aF191.25
aF191.25
aF191.25
aF191.25
aF191.25
aF191.25
aF191.25
aF191.25
aF191.25
aF191.25
aF191.25
aF191.25
aF191.25
aF191.25
aF191.25
aF191.25
aF191.25
aF191.25
aF191.25
aF191.25
aF191.25
aF191.25
aF191.25
aF191.25
aF191.25
aF191.25
aF191.25
aF191.25
aF191.25
aF191.25
aF191.25
aF191.25
aF191.25
aF191.25
aF191.25
aF191.25
aF191.25
aF191.25
aF191.25
aF191.25
aF191.25
aF191.25
aF191.25
aF191.25
aF191.25
aF191.25
aF191.25
aF191.25
aF191.25
aF191.25
aF191.25
aF191.25
aF191.25
aF191.25
aF191.25
aF191.25
aF191.25
aF191.25
aF191.25
aF191.25
aF191.25
aF191.25
aF191.25
aF191.25
aF191.25
aF191.25
aF191.25
aF191.25
aF191.25
aF191.25
aF191.25
aF191.25
aF191.25
aF191.25
aF191.25
aF191.25
aF191.25
aF191.25
aF191.25
aF191.25
aF191.25
aF191.25
aF191.25
aF191.25
aF191.25
aF191.25
aF191.25
aF191.25
aF191.25
aF191.25
aF191.25
aF191.25
aF191.25
aF191.25
aF191.25
aF191.25
aF191.25
aF191.25
aF191.25
aF191.25
aF191.25
aF191.25
aF191.25
aF191.25
aF191.25
aF191.25
aF191.25
aF191.25
aF191.25
aF191.25
aF191.25
aF191.25
aF191.25
aF191.25
aF191.25
aF191.25
aF191.25
aF191.25
aF191.25
aF191.25
aF191.25
aF191.25
aF191.25
aF191.25
aF191.25
aF191.25
aF191.25
aF191.25
aF191.25
aF191.25
aF191.25
aF191.25
aF191.25
aF191.25
aF191.25
aF191.25
aF191.25
aF191.25
aF191.25
aF191.25
aF191.25
aF191.25
aF191.25
aF191.25
aF191.25
aF191.25
aF191.25
aF191.25
aF191.25
aF191.25
aF191.25
aF191.25
aF191.25
aF191.25
aF191.25
aF191.25
aF191.25
aF191.25
aF191.25
aF191.25
aF191.25
aF191.25
aF191.25
aF191.25
aF191.25
aF191.25
aF191.25
aF191.25
aF191.25
aF191.25
aF191.25
aF191.25
aF191.25
aF191.25
aF191.25
aF191.25
aF191.25
aF191.25
aF191.25
aF191.25
aF191.25
aF191.25
aF191.25
aF191.25
aF191.25
aF191.25
aF191.25
aF191.25
aF191.25
aF191.25
aF191.25
aF191.25
aF191.25
aF191.25
aF191.25
aF191.25
aF191.25
aF191.25
aF191.25
aF191.25
aF191.25
aF191.25
aF191.25
aF191.25
aF191.25
aF191.25
aF191.25
aF191.25
aF191.25
aF191.25
aF191.25
aF191.25
aF191.25
aF191.25
aF191.25
aF191.25
aF191.25
aF191.25
aF191.25
aF191.25
aF191.25
aF191.25
aF191.25
aF191.25
aF191.25
aF191.25
aF191.25
aF191.25
aF191.25
aF191.25
aF191.25
aF191.25
aF191.25
aF191.25
aF191.25
aF191.25
aF191.25
aF191.25
aF191.25
aF191.25
aF191.25
aF191.25
aF191.25
aF191.25
aF191.25
aF191.25
aF191.25
aF191.25
aF191.25
aF191.25
aF191.25
aF191.25
aF191.25
aF191.25
aF191.25
aF191.25
aF191.25
aF191.25
aF191.25
aF191.25
aF191.25
aF191.25
aF191.25
aF191.25
aF191.25
aF191.25
aF191.25
aF191.25
aF191.25
aF191.25
aF191.25
aF191.25
aF191.25
aF191.25
aF191.25
aF191.25
aF191.25
aF191.25
aF191.25
aF191.25
aF191.25
aF191.25
aF191.25
aF191.25
aF191.25
aF191.25
aF191.25
aF191.25
aF191.25
aF191.25
aF191.25
aF191.25
aF191.25
aF191.25
aF191.25
aF191.25
aF191.25
aF191.25
aF191.25
aF191.25
aF191.25
aF191.25
aF191.25
aF191.25
aF191.25
aF191.25
aF191.25
aF191.25
aF191.25
aF191.25
aF191.25
aF191.25
aF191.25
aF191.25
aF191.25
aF191.25
aF191.25
aF191.25
aF191.25
aF191.25
aF191.25
aF191.25
aF191.25
aF191.25
aF191.25
aF191.25
aF191.25
aF191.25
aF191.25
aF191.25
aF191.25
aF191.25
aF191.25
aF191.25
aF191.25
aF191.25
aF191.25
aF191.25
aF191.25
aF191.25
aF191.25
aF191.25
aF191.25
aF191.25
aF191.25
aF191.25
aF191.25
aF191.25
aF191.25
aF191.25
aF191.25
aF191.25
aF191.25
aF191.25
aF191.25
aF191.25
aF191.25
aF191.25
aF191.25
aF191.25
aF191.25
aF191.25
aF191.25
aF191.25
aF191.25
aF191.25
aF191.25
aF191.25
aF191.25
aF191.25
aF191.25
aF191.25
aF191.25
aF191.25
aF191.25
aF191.25
aF191.25
aF191.25
aF191.25
aF191.25
aF191.25
aF191.25
aF191.25
aF191.25
aF191.25
aF191.25
aF191.25
aF191.25
aF191.25
aF191.25
aF191.25
aF191.25
aF191.25
aF191.25
aF191.25
aF191.25
aF191.25
aF191.25
aF191.25
aF191.25
aF191.25
aF191.25
aF191.25
aF191.25
aF191.25
aF191.25
aF191.25
aF191.25
aF191.25
aF191.25
aF191.25
aF191.25
aF191.25
aF191.25
aF191.25
aF191.25
aF191.25
aF191.25
aF191.25
aF191.25
aF191.25
aF191.25
aF191.25
aF191.25
aF191.25
aF191.25
aF191.25
aF191.25
aF191.25
aF191.25
aF191.25
aF191.25
aF191.25
aF191.25
aF191.25
aF191.25
aF191.25
aF191.25
aF191.25
aF191.25
aF191.25
aF191.25
aF191.25
aF191.25
aF191.25
aF191.25
aF191.25
aF191.25
aF191.25
aF191.25
aF191.25
aF191.25
aF191.25
aF191.25
aF191.25
aF191.25
aF191.25
aF191.25
aF191.25
aF191.25
aF191.25
aF191.25
aF191.25
aF191.25
aF191.25
aF191.25
aF191.25
aF191.25
aF191.25
aF191.25
aF191.25
aF191.25
aF191.25
aF191.25
aF191.25
aF191.25
aF191.25
aF191.25
aF191.25
aF191.25
aF191.25
aF191.25
aF191.25
aF191.25
aF191.25
aF191.25
aF191.25
aF191.25
aF191.25
aF191.25
aF191.25
aF191.25
aF191.25
aF191.25
aF191.25
aF191.25
aF191.25
aF191.25
aF191.25
aF191.25
aF191.25
aF191.25
aF191.25
aF191.25
aF191.25
aF191.25
aF191.25
aF191.25
aF191.25
aF191.25
aF191.25
aF191.25
aF191.25
aF191.25
aF191.25
aF191.25
aF191.25
aF191.25
aF191.25
aF191.25
aF191.25
aF191.25
aF191.25
aF191.25
aF191.25
aF191.25
aF191.25
aF191.25
aF191.25
aF191.25
aF191.25
aF191.25
aF191.25
aF191.25
aF191.25
aF191.25
aF191.25
aF191.25
aF191.25
aF191.25
aF191.25
aF191.25
aF191.25
aF191.25
aF191.25
aF191.25
aF191.25
aF191.25
aF191.25
aF191.25
aF191.25
aF191.25
aF191.25
aF191.25
aF191.25
aF191.25
aF191.25
aF191.25
aF191.25
aF191.25
aF191.25
aF191.25
aF191.25
aF191.25
aF191.25
aF191.25
aF191.25
aF191.25
aF191.25
aF191.25
aF191.25
aF191.25
aF191.25
aF191.25
aF191.25
aF191.25
aF191.25
aF191.25
aF191.25
aF191.25
aF191.25
aF191.25
aF191.25
aF191.25
aF191.25
aF191.25
aF191.25
aF191.25
aF191.25
aF191.25
aF191.25
aF191.25
aF191.25
aF191.25
aF191.25
aF191.25
aF191.25
aF191.25
aF191.25
aF191.25
aF191.25
aF191.25
aF191.25
aF191.25
aF191.25
aF191.25
aF191.25
aF191.25
aF191.25
aF191.25
aF191.25
aF191.25
aF191.25
aF191.25
aF191.25
aF191.25
aF191.25
aF191.25
aF191.25
aF191.25
aF191.25
aF191.25
aF191.25
aF191.25
aF191.25
aF191.25
aF191.25
aF191.25
aF191.25
aF191.25
aF191.25
aF191.25
aF191.25
aF191.25
aF191.25
aF191.25
aF191.25
aF191.25
aF191.25
aF191.25
aF191.25
aF191.25
aF191.25
aF191.25
aF191.25
aF191.25
aF191.25
aF191.25
aF191.25
aF191.25
aF191.25
aF191.25
aF191.25
aF191.25
aF191.25
aF191.25
aF191.25
aF191.25
aF191.25
aF191.25
aF191.25
aF191.25
aF191.25
aF191.25
aF191.25
aF191.25
aF191.25
aF191.25
aF191.25
aF191.25
aF191.25
aF191.25
aF191.25
aF191.25
aF191.25
aF191.25
aF191.25
aF191.25
aF191.25
aF191.25
aF191.25
aF191.25
aF191.25
aF191.25
aF191.25
aF191.25
aF191.25
aF191.25
aF191.25
aF191.25
aF191.25
aF191.25
aF191.25
aF191.25
aF191.25
aF191.25
aF191.25
aF191.25
aF191.25
aF191.25
aF191.25
aF191.25
aF191.25
aF191.25
aF191.25
aF191.25
aF191.25
aF191.25
aF191.25
aF191.25
aF191.25
aF191.25
aF191.25
aF191.25
aF191.25
aF191.25
aF191.25
aF191.25
aF191.25
aF191.25
aF191.25
aF191.25
aF191.25
aF191.25
aF191.25
aF191.25
aF191.25
aF191.25
aF191.25
aF191.25
aF191.25
aF191.25
aF191.25
aF191.25
aF191.25
aF191.25
aF191.25
aF191.25
aF191.25
aF191.25
aF191.25
aF191.25
aF191.25
aF191.25
aF191.25
aF191.25
aF191.25
aF191.25
aF191.25
aF191.25
aF191.25
aF191.25
aF191.25
aF191.25
aF191.25
aF191.25
aF191.25
aF191.25
aF191.25
aF191.25
aF191.25
aF191.25
aF191.25
aF191.25
aF191.25
aF191.25
aF191.25
aF191.25
aF191.25
aF191.25
aF191.25
aF191.25
aF191.25
aF191.25
aF191.25
aF191.25
aF191.25
aF191.25
aF191.25
aF191.25
aF191.25
aF191.25
aF191.25
aF191.25
aF191.25
aF191.25
aF191.25
aF191.25
aF191.25
aF191.25
aF191.25
aF191.25
aF191.25
aF191.25
aF191.25
aF191.25
aF191.25
aF191.25
aF191.25
aF191.25
aF191.25
aF191.25
aF191.25
aF191.25
aF191.25
aF191.25
aF191.25
aF191.25
aF191.25
aF191.25
aF191.25
aF191.25
aF191.25
aF191.25
aF191.25
aF191.25
aF191.25
aF191.25
aF191.25
aF191.25
aF191.25
aF191.25
aF191.25
aF191.25
aF191.25
aF191.25
aF191.25
aF191.25
aF191.25
aF191.25
aF191.25
aF191.25
aF191.25
aF191.25
aF191.25
aF191.25
aF191.25
aF191.25
aF191.25
aF191.25
aF191.25
aF191.25
aF191.25
aF191.25
aF191.25
aF191.25
aF191.25
aF191.25
aF191.25
aF191.25
aF191.25
aF191.25
aF191.25
aF191.25
aF191.25
aF191.25
aF191.25
aF191.25
aF191.25
aF191.25
aF191.25
aF191.25
aF191.25
aF191.25
aF191.25
aF191.25
aF191.25
aF191.25
aF191.25
aF191.25
aF191.25
aF191.25
aF191.25
aF191.25
aF191.25
aF191.25
aF191.25
aF191.25
aF191.25
aF191.25
aF191.25
aF191.25
aF191.25
aF191.25
aF191.25
aF191.25
aF191.25
aF191.25
aF191.25
aF191.25
aF191.25
aF191.25
aF191.25
aF191.25
aF191.25
aF191.25
aF191.25
aF191.25
aF191.25
aF191.25
aF191.25
aF191.25
aF191.25
aF191.25
aF191.25
aF191.25
aF191.25
aF191.25
aF191.25
aF191.25
aF191.25
aF191.25
aF191.25
aF191.25
aF191.25
aF191.25
aF191.25
aF191.25
aF191.25
aF191.25
aF191.25
aF191.25
aF191.25
aF191.25
aF191.25
aF191.25
aF191.25
aF191.25
aF191.25
aF191.25
aF191.25
aF191.25
aF191.25
aF191.25
aF191.25
aF191.25
aF0
aF0
aF0
aF0
aF0
aF0
aF0
aF0
aF0
aF0
aF0
aF0
aF0
aF0
aF0
aF0
aF0
aF0
aF0
aF0
aF0
aF0
aF0
aF0
aF0
aF0
aF0
aF0
aF0
aF0
aF0
aF0
aF0
aF0
aF0
aF0
aF0
aF0
aF0
aF0
aF0
aF0
aF0
aF0
aF0
aF0
aF0
aF0
aF0
aF0
aF0
aF0
aF0
aF0
aF0
aF0
aF0
aF0
aF0
aF0
aF0
aF0
aF0
aF0
aF0
aF0
aF0
aF0
aF0
aF0
aF0
aF0
aF0
aF0
aF0
aF0
aF0
aF0
aF0
aF0
aF0
aF0
aF0
aF0
aF0
aF0
aF0
aF0
aF0
aF0
aF0
aF0
aF0
aF0
aF0
aF0
aF0
aF0
aF0
aF0
aF0
aF0
aF0
aF0
aF0
aF0
aF0
aF0
aF0
aF0
aF0
aF0
aF0
aF0
aF0
aF0
aF0
aF0
aF0
aF0
aF0
aF0
aF0
aF0
aF0
aF0
aF0
aF0
aF0
aF0
aF0
aF0
aF0
aF0
aF0
aF0
aF0
aF0
aF0
aF0
aF0
aF0
aF0
aF0
aF0
aF0
aF0
aF0
aF0
aF0
aF0
aF0
aF0
aF0
aF0
aF0
aF0
aF0
aF0
aF0
aF0
aF0
aF0
aF0
aF0
aF0
aF0
aF0
aF0
aF0
aF0
aF0
aF0
aF0
aF0
aF0
aF0
aF0
aF0
aF0
aF0
aF0
aF0
aF0
aF0
aF0
aF0
aF0
aF0
aF0
aF0
aF0
aF0
aF0
aF0
aF0
aF0
aF0
aF0
aF0
aF0
aF0
aF0
aF0
aF0
aF0
aF0
aF0
aF0
aF0
aF0
aF0
aF0
aF0
aF0
aF0
aF0
aF0
aF0
aF0
aF0
aF0
aF0
aF0
aF0
aF0
aF0
aF0
aF0
aF0
aF0
aF0
aF0
aF0
aF0
aF0
aF0
aF0
aF0
aF0
aF0
aF0
aF0
aF0
aF0
aF0
aF0
aF0
aF0
aF0
aF0
aF0
aF0
aF0
aF0
aF0
aF0
aF0
aF0
aF0
aF0
aF0
aF0
aF0
aF0
aF0
aF0
aF0
aF0
aF0
aF0
aF0
aF0
aF0
aF0
aF0
aF0
aF0
aF0
aF0
aF0
aF0
aF0
aF0
aF0
aF0
aF0
aF0
aF0
aF0
aF0
aF0
aF0
aF0
aF0
aF0
aF0
aF0
aF0
aF0
aF0
aF0
aF0
aF0
aF0
aF0
aF0
aF0
aF0
aF0
aF0
aF0
aF0
aF0
aF0
aF0
aF0
aF0
aF0
aF0
aF0
aF0
aF0
aF0
aF0
aF0
aF0
aF0
aF0
aF0
aF0
aF0
aF0
aF0
aF0
aF0
aF0
aF0
aF0
aF0
aF0
aF0
aF0
aF0
aF0
aF0
aF0
aF0
aF0
aF0
aF0
aF0
aF0
aF0
aF0
aF0
aF0
aF0
aF0
aF0
aF0
aF0
aF0
aF0
aF0
aF0
aF0
aF0
aF0
aF0
aF0
aF0
aF0
aF0
aF0
aF0
aF0
aF0
aF0
aF0
aF0
aF0
aF0
aF0
aF0
aF0
aF0
aF0
aF0
aF0
aF0
aF0
aF0
aF0
aF0
aF0
aF0
aF0
aF0
aF0
aF0
aF0
aF0
aF0
aF0
aF0
aF0
aF0
aF0
aF0
aF0
aF0
aF0
aF0
aF0
aF0
aF0
aF0
aF0
aF0
aF0
aF0
aF0
aF0
aF0
aF0
aF0
aF0
aF0
aF0
aF0
aF0
aF0
aF0
aF0
aF0
aF0
aF0
aF0
aF0
aF0
aF0
aF0
aF0
aF0
aF0
aF0
aF0
aF0
aF0
aF0
aF0
aF0
aF0
aF0
aF0
aF0
aF0
aF0
aF0
aF0
aF0
aF0
aF0
aF0
aF0
aF0
aF0
aF0
aF0
aF0
aF0
aF0
aF0
aF0
aF0
aF0
aF0
aF0
aF0
aF0
aF0
aF0
aF0
aF0
aF0
aF0
aF0
aF0
aF0
aF0
aF0
aF0
aF0
aF0
aF0
aF0
aF0
aF0
aF0
aF0
aF0
aF0
aF0
aF0
aF0
aF0
aF0
aF0
aF0
aF0
aF0
aF0
aF0
aF0
aF0
aF0
aF0
aF0
aF0
aF0
aF0
aF0
aF0
aF0
aF0
aF0
aF0
aF0
aF0
aF0
aF0
aF0
aF0
aF0
aF0
aF0
aF0
aF0
aF0
aF0
aF0
aF0
aF0
aF0
aF0
aF0
aF0
aF0
aF0
aF0
aF0
aF0
aF0
aF0
aF0
aF0
aF0
aF0
aF0
aF0
aF0
aF0
aF0
aF0
aF0
aF0
aF0
aF0
aF0
aF0
aF0
aF0
aF0
aF0
aF0
aF0
aF0
aF0
aF0
aF0
aF0
aF0
aF0
aF0
aF0
aF0
aF0
aF0
aF0
aF0
aF0
aF0
aF0
aF0
aF0
aF0
aF0
aF0
aF0
aF0
aF0
aF0
aF0
aF0
aF0
aF0
aF0
aF0
aF0
aF0
aF0
aF0
aF0
aF0
aF0
aF0
aF0
aF0
aF0
aF0
aF0
aF0
aF0
aF0
aF0
aF0
aF0
aF0
aF0
aF0
aF0
aF0
aF0
aF0
aF0
aF0
aF0
aF0
aF0
aF0
aF0
aF0
aF0
aF0
aF0
aF0
aF0
aF0
aF0
aF0
aF0
aF0
aF0
aF0
aF0
aF0
aF0
aF0
aF0
aF0
aF0
aF0
aF0
aF0
aF0
aF0
aF0
aF0
aF0
aF0
aF0
aF0
aF0
aF0
aF0
aF0
aF0
aF0
aF0
aF0
aF0
aF0
aF0
aF0
aF0
aF0
aF0
aF0
aF0
aF0
aF0
aF0
aF0
aF0
aF0
aF0
aF0
aF0
aF0
aF0
aF0
aF0
aF0
aF0
aF0
aF0
aF0
aF0
aF0
aF0
aF0
aF0
aF0
aF0
aF0
aF0
aF0
aF0
aF0
aF0
aF0
aF0
aF0
aF0
aF0
aF0
aF0
aF0
aF0
aF0
aF0
aF0
aF0
aF0
aF0
aF0
aF0
aF0
aF0
aF0
aF0
aF0
aF0
aF0
aF0
aF0
aF0
aF0
aF0
aF0
aF0
aF0
aF0
aF0
aF0
aF0
aF0
aF0
aF0
aF0
aF0
aF0
aF0
aF0
aF0
aF0
aF0
aF0
aF0
aF0
aF0
aF0
aF0
aF0
aF0
aF0
aF0
aF0
aF0
aF0
aF0
aF0
aF0
aF0
aF0
aF0
aF0
aF0
aF0
aF0
aF0
aF0
aF0
aF0
aF0
aF0
aF0
aF0
aF0
aF0
aF0
aF0
aF0
aF0
aF0
aF0
aF0
aF0
aF0
aF0
aF0
aF0
aF0
aF0
aF0
aF0
aF0
aF0
aF0
aF0
aF0
aF0
aF0
aF0
aF0
aF0
aF0
aF0
aF0
aF0
aF0
aF0
aF0
aF0
aF0
aF0
aF0
aF0
aF0
aF0
aF0
aF0
aF0
aF0
aF0
aF0
aF0
aF0
aF0
aF0
aF0
aF0
aF0
aF0
aF0
aF0
aF0
aF0
aF0
aF0
aF0
aF0
aF0
aF0
aF0
aF0
aF0
aF0
aF0
aF0
aF0
aF0
aF0
aF0
aF0
aF0
aF0
aF0
aF0
aF0
aF0
aF0
aF0
aF0
aF0
aF0
aF0
aF0
aF0
aF0
aF0
aF0
aF0
aF0
aF0
aF0
aF0
aF0
aF0
aF0
aF0
aF0
aF0
aF0
aF0
aF0
aF0
aF0
aF0
aF0
aF0
aF0
aF0
aF0
aF0
aF0
aF0
aF0
aF0
aF0
aF0
aF0
aF0
aF0
aF0
aF0
aF0
aF0
aF0
aF0
aF0
aF0
aF0
aF0
aF0
aF0
aF0
aF0
aF0
aF0
aF0
aF0
aF0
aF0
aF0
aF0
aF0
aF0
aF0
aF0
aF0
aF0
aF0
aF0
aF0
aF0
aF0
aF0
aF0
aF0
aF0
aF0
aF0
aF0
aF0
aF0
aF0
aF0
aF0
aF0
aF0
aF0
aF0
aF0
aF0
aF0
aF0
aF0
aF0
aF0
aF0
aF0
aF0
aF0
aF0
aF0
aF0
aF0
aF0
aF0
aF0
aF0
aF0
aF0
aF0
asS't_off'
p13
F1100
s.