(dp1
S'temp_list'
p2
(lp3
F22.423459667096775
aF22.423459667096775
aF22.423459667096775
aF22.423459667096775
aF22.423459667096775
aF22.423459667096775
aF22.423459667096775
aF22.423459667096775
aF22.423459667096775
aF22.423459667096775
aF22.423459667096775
aF22.423459667096775
aF22.423459667096775
aF22.423459667096775
aF22.423459667096775
aF22.423459667096775
aF22.423459667096775
aF22.423459667096775
aF22.423459667096775
aF22.423459667096775
aF22.423459667096775
aF22.423459667096775
aF22.423459667096775
aF22.423459667096775
aF22.423459667096775
aF22.423459667096775
aF22.423459667096775
aF22.423459667096775
aF22.423459667096775
aF22.423459667096775
aF22.423459667096775
aF22.423459667096775
aF22.423459667096775
aF22.423459667096775
aF22.423459667096775
aF22.423459667096775
aF22.423459667096775
aF22.423459667096775
aF22.423459667096775
aF22.423459667096775
aF22.423459667096775
aF22.423459667096775
aF22.423459667096775
aF22.423459667096775
aF22.423459667096775
aF22.423459667096775
aF22.423459667096775
aF22.423459667096775
aF22.423459667096775
aF22.423459667096775
aF22.423459667096775
aF22.423459667096775
aF22.423459667096775
aF22.423459667096775
aF22.423459667096775
aF22.423459667096775
aF22.423459667096775
aF22.423459667096775
aF22.423459667096775
aF22.423459667096775
aF22.423459667096775
aF22.423459667096775
aF22.423459667096775
aF22.423459667096775
aF22.423459667096775
aF22.423459667096775
aF22.423459667096775
aF22.423459667096775
aF22.423459667096775
aF22.423459667096775
aF22.423459667096775
aF22.423459667096775
aF23.408994833782995
aF22.423459667096775
aF22.423459667096775
aF22.423459667096775
aF22.423459667096775
aF22.423459667096775
aF22.423459667096775
aF22.423459667096775
aF22.423459667096775
aF22.423459667096775
aF22.423459667096775
aF22.423459667096775
aF22.423459667096775
aF22.423459667096775
aF22.423459667096775
aF22.423459667096775
aF22.423459667096775
aF22.423459667096775
aF22.423459667096775
aF22.423459667096775
aF22.423459667096775
aF22.423459667096775
aF22.423459667096775
aF22.423459667096775
aF22.423459667096775
aF22.423459667096775
aF22.423459667096775
aF22.423459667096775
aF22.423459667096775
aF22.423459667096775
aF22.423459667096775
aF22.423459667096775
aF22.423459667096775
aF22.423459667096775
aF22.423459667096775
aF22.423459667096775
aF22.423459667096775
aF22.423459667096775
aF22.423459667096775
aF23.408994833782995
aF23.408994833782995
aF23.408994833782995
aF24.39453000046921
aF24.39453000046921
aF24.640913792140765
aF25.133681375483871
aF26.11921654217009
aF26.11921654217009
aF28.336670667214079
aF28.583054458885638
aF30.30774100058651
aF31.29327616727273
aF32.032427542287387
aF33.75711408398827
aF35.235416834017606
aF35.974568209032263
aF38.192022334076249
aF39.670325084105571
aF40.902244042463352
aF41.887779209149564
aF44.105233334193549
aF46.076303667565988
aF48.047374000938419
aF48.293757792609973
aF49.772060542639295
aF51.743130876011726
aF53.960585001055719
aF55.931655334428157
aF57.656341876129041
aF59.873796001173019
aF61.844866334545458
aF62.830401501231677
aF63.569552876246341
aF65.540623209618758
aF67.511693542991196
aF69.72914766803521
aF71.453834209736073
aF72.439369376422292
aF74.656823501466278
aF75.888742459824059
aF78.59896416821114
aF79.338115543225797
aF81.309185876598249
aF83.033872418299126
aF83.280256209970688
aF85.497710335014659
aF87.468780668387097
aF87.468780668387097
aF89.193467210087974
aF91.410921335131974
aF93.381991668504412
aF95.353062001876836
aF95.353062001876836
aF96.092213376891507
aF97.077748543577727
aF99.048818876950151
aF101.26627300199414
aF102.25180816868036
aF102.99095954369503
aF103.97649471038125
aF106.19394883542522
aF104.96202987706745
aF109.15055433548387
aF111.36800846052786
aF111.12162466885631
aF109.15055433548387
aF111.36800846052786
aF117.03483566897361
aF117.03483566897361
aF112.84631121055719
aF114.57099775225808
aF120.48420875237538
aF120.73059254404693
aF118.02037083565983
aF119.00590600234604
aF122.94804666909091
aF124.91911700246335
aF122.94804666909091
aF122.94804666909091
aF124.91911700246335
aF127.62933871085045
aF127.13657112750732
aF124.91911700246335
aF126.64380354416423
aF130.58594421090908
aF130.58594421090908
aF127.62933871085045
aF130.3395604192375
aF134.52808487765392
aF134.52808487765392
aF131.07871179425217
aF132.80339833595306
aF135.02085246099705
aF138.71660933607041
aF136.49915521102639
aF136.49915521102639
aF138.71660933607041
aF141.67321483612903
aF140.68767966944282
aF138.71660933607041
aF140.68767966944282
aF144.38343654451612
aF144.38343654451612
aF141.67321483612903
aF142.41236621114368
aF146.35450687788855
aF149.55749616961876
aF148.57196100293254
aF145.61535550287388
aF145.61535550287388
aF148.57196100293254
aF150.78941512797653
aF150.54303133630498
aF148.57196100293254
aF150.54303133630498
aF154.48517200304985
aF153.49963683636363
aF150.54303133630498
aF151.28218271131965
aF156.45624233642226
aF157.44177750310848
aF156.45624233642226
aF153.49963683636363
aF153.99240441970673
aF158.18092887812315
aF159.16646404480935
aF158.18092887812315
aF156.45624233642226
aF158.18092887812315
aF162.12306954486803
aF160.15199921149556
aF160.15199921149556
aF160.15199921149556
aF161.38391816985339
aF162.12306954486803
aF162.12306954486803
aF162.61583712821115
aF164.34052366991205
aF164.34052366991205
aF165.32605883659824
aF165.81882641994136
aF165.81882641994136
aF166.06521021161291
aF166.06521021161291
aF167.05074537829913
aF168.03628054498532
aF168.03628054498532
aF168.03628054498532
aF170.2537346700293
aF170.2537346700293
aF170.2537346700293
aF170.2537346700293
aF172.22480500340174
aF172.22480500340174
aF172.22480500340174
aF173.21034017008796
aF174.19587533677418
aF174.19587533677418
aF174.19587533677418
aF174.19587533677418
aF174.93502671178885
aF175.92056187847507
aF175.92056187847507
aF175.92056187847507
aF175.92056187847507
aF175.92056187847507
aF177.64524842017593
aF177.89163221184751
aF177.89163221184751
aF177.89163221184751
aF178.3843997951906
aF178.3843997951906
aF178.3843997951906
aF180.10908633689149
aF180.10908633689149
aF180.10908633689149
aF181.09462150357771
aF182.08015667026393
aF182.08015667026393
aF182.08015667026393
aF182.32654046193548
aF182.32654046193548
aF182.81930804527858
aF183.80484321196479
aF185.03676217032256
aF185.03676217032256
aF185.03676217032256
aF186.02229733700881
aF186.02229733700881
aF186.02229733700881
aF186.02229733700881
aF186.26868112868036
aF187.99336767038125
aF189.96443800375366
aF189.96443800375366
aF189.96443800375366
aF189.96443800375366
aF189.96443800375366
aF189.96443800375366
aF189.96443800375366
aF189.96443800375366
aF189.96443800375366
aF190.21082179542523
aF190.70358937876833
aF190.70358937876833
aF191.68912454545455
aF191.68912454545455
aF191.68912454545455
aF192.92104350381231
aF193.41381108715544
aF193.41381108715544
aF193.66019487882699
aF193.66019487882699
aF193.66019487882699
aF194.15296246217008
aF195.87764900387094
aF195.87764900387094
aF195.87764900387094
aF195.87764900387094
aF195.87764900387094
aF196.86318417055716
aF195.87764900387094
aF196.86318417055716
aF196.86318417055716
aF196.86318417055716
aF197.60233554557183
aF197.35595175390029
aF197.60233554557183
aF197.60233554557183
aF198.58787071225802
aF197.60233554557183
aF197.60233554557183
aF198.58787071225802
aF199.32702208727272
aF199.57340587894427
aF199.57340587894427
aF199.57340587894427
aF200.80532483730207
aF200.80532483730207
aF201.79086000398826
aF200.80532483730207
aF201.79086000398826
aF201.79086000398826
aF201.79086000398826
aF201.79086000398826
aF201.79086000398826
aF201.79086000398826
aF202.0372437956598
aF202.0372437956598
aF202.5300113790029
aF203.7619303373607
aF203.7619303373607
aF203.7619303373607
aF203.7619303373607
aF203.7619303373607
aF204.74746550404689
aF204.74746550404689
aF205.48661687906159
aF205.48661687906159
aF205.48661687906159
aF205.48661687906159
aF206.47215204574778
aF207.21130342076248
aF206.47215204574778
aF206.47215204574778
aF207.45768721243402
aF207.45768721243402
aF207.45768721243402
aF207.45768721243402
aF207.45768721243402
aF208.68960617079176
aF207.45768721243402
aF208.68960617079176
aF207.45768721243402
aF209.18237375413489
aF209.18237375413489
aF209.18237375413489
aF208.68960617079176
aF208.68960617079176
aF208.68960617079176
aF209.18237375413489
aF209.42875754580643
aF209.42875754580643
aF209.92152512914953
aF209.42875754580643
aF208.68960617079176
aF209.18237375413489
aF209.42875754580643
aF209.92152512914953
aF211.64621167085042
aF211.64621167085042
aF211.64621167085042
aF211.64621167085042
aF211.64621167085042
aF212.63174683753661
aF212.63174683753661
aF212.63174683753661
aF212.63174683753661
aF212.63174683753661
aF213.61728200422286
aF213.61728200422286
aF212.63174683753661
aF213.61728200422286
aF213.61728200422286
aF213.61728200422286
aF213.61728200422286
aF213.86366579589441
aF215.34196854592375
aF214.3564333792375
aF215.34196854592375
aF216.57388750428149
aF217.55942267096773
aF216.57388750428149
aF216.57388750428149
aF216.57388750428149
aF217.55942267096773
aF217.55942267096773
aF217.55942267096773
aF217.55942267096773
aF217.55942267096773
aF217.55942267096773
aF217.55942267096773
aF217.55942267096773
aF217.55942267096773
aF217.55942267096773
aF217.55942267096773
aF217.55942267096773
aF217.55942267096773
aF217.55942267096773
aF217.55942267096773
aF217.55942267096773
aF217.55942267096773
aF217.55942267096773
aF217.80580646263928
aF219.53049300434017
aF219.53049300434017
aF219.53049300434017
aF219.53049300434017
aF219.53049300434017
aF219.53049300434017
aF219.53049300434017
aF219.53049300434017
aF217.80580646263928
aF219.53049300434017
aF219.53049300434017
aF219.53049300434017
aF219.53049300434017
aF219.53049300434017
aF219.53049300434017
aF219.53049300434017
aF219.53049300434017
aF219.53049300434017
aF219.53049300434017
aF219.53049300434017
aF221.50156333771261
aF219.53049300434017
aF219.53049300434017
aF221.50156333771261
aF221.50156333771261
aF221.50156333771261
aF221.50156333771261
aF221.50156333771261
aF222.24071471272725
aF221.50156333771261
aF221.50156333771261
aF221.50156333771261
aF221.50156333771261
aF221.50156333771261
aF220.51602817102636
aF219.53049300434017
aF219.53049300434017
aF217.80580646263928
aF217.55942267096773
aF215.34196854592375
aF215.34196854592375
aF213.86366579589441
aF213.61728200422286
aF212.63174683753661
aF211.64621167085042
aF209.92152512914953
aF209.42875754580643
aF207.45768721243402
aF206.47215204574778
aF205.48661687906159
aF204.74746550404689
aF203.7619303373607
aF203.7619303373607
aF201.79086000398826
aF204.74746550404689
aF201.79086000398826
aF197.35595175390029
aF195.87764900387094
aF198.58787071225802
aF198.58787071225802
aF196.86318417055716
aF193.41381108715544
aF195.87764900387094
aF197.35595175390029
aF193.66019487882699
aF190.70358937876833
aF190.70358937876833
aF195.87764900387094
aF195.87764900387094
aF193.66019487882699
aF191.68912454545455
aF193.66019487882699
aF197.60233554557183
aF195.87764900387094
aF192.92104350381231
aF192.92104350381231
aF195.87764900387094
aF197.60233554557183
aF196.86318417055716
aF193.41381108715544
aF194.15296246217008
aF198.58787071225802
aF199.57340587894427
aF197.35595175390029
aF195.87764900387094
aF197.60233554557183
aF201.79086000398826
aF199.57340587894427
aF197.60233554557183
aF197.60233554557183
aF199.57340587894427
aF203.7619303373607
aF201.79086000398826
aF199.57340587894427
aF199.32702208727272
aF203.7619303373607
aF203.7619303373607
aF203.7619303373607
aF203.7619303373607
aF203.7619303373607
aF204.74746550404689
aF205.24023308739004
aF205.24023308739004
aF205.24023308739004
aF205.48661687906159
aF205.48661687906159
aF205.48661687906159
aF205.48661687906159
aF206.47215204574778
aF206.47215204574778
aF206.47215204574778
aF206.47215204574778
aF206.47215204574778
aF205.48661687906159
aF205.48661687906159
aF205.48661687906159
aF205.24023308739004
aF205.24023308739004
aF204.74746550404689
aF204.74746550404689
aF203.7619303373607
aF203.7619303373607
aF202.0372437956598
aF201.79086000398826
aF201.79086000398826
aF199.57340587894427
aF199.57340587894427
aF197.60233554557183
aF197.35595175390029
aF196.86318417055716
aF195.87764900387094
aF193.66019487882699
aF193.66019487882699
aF193.41381108715544
aF191.68912454545455
aF190.70358937876833
aF190.70358937876833
aF189.96443800375366
aF189.96443800375366
aF189.96443800375366
aF189.96443800375366
aF189.96443800375366
aF187.99336767038125
aF187.99336767038125
aF187.99336767038125
aF186.26868112868036
aF187.99336767038125
aF186.26868112868036
aF186.02229733700881
aF186.02229733700881
aF186.02229733700881
aF186.26868112868036
aF187.99336767038125
aF187.99336767038125
aF189.96443800375366
aF189.96443800375366
aF189.96443800375366
aF189.96443800375366
aF189.96443800375366
aF189.96443800375366
aF189.96443800375366
aF189.96443800375366
aF189.96443800375366
aF189.96443800375366
aF190.70358937876833
aF191.442740753783
aF191.68912454545455
aF191.68912454545455
aF192.92104350381231
aF193.66019487882699
aF193.66019487882699
aF194.15296246217008
aF195.87764900387094
aF195.87764900387094
aF195.87764900387094
aF196.86318417055716
aF197.60233554557183
aF197.60233554557183
aF198.09510312891493
aF198.09510312891493
aF198.09510312891493
aF199.57340587894427
aF199.57340587894427
aF199.57340587894427
aF199.57340587894427
aF200.80532483730207
aF200.80532483730207
aF201.29809242064516
aF200.80532483730207
aF200.80532483730207
aF201.29809242064516
aF201.79086000398826
aF201.79086000398826
aF201.79086000398826
aF201.79086000398826
aF201.79086000398826
aF201.29809242064516
aF200.80532483730207
aF199.57340587894427
aF199.57340587894427
aF198.58787071225802
aF198.09510312891493
aF197.35595175390029
aF196.86318417055716
aF195.87764900387094
aF195.87764900387094
aF194.15296246217008
aF193.66019487882699
aF191.68912454545455
aF191.68912454545455
aF190.70358937876833
aF189.96443800375366
aF189.96443800375366
aF187.99336767038125
aF187.99336767038125
aF186.02229733700881
aF186.02229733700881
aF183.80484321196479
aF183.55845942029325
aF182.32654046193548
aF182.08015667026393
aF181.09462150357771
aF180.10908633689149
aF180.10908633689149
aF178.87716737853373
aF177.89163221184751
aF177.89163221184751
aF177.89163221184751
aF177.89163221184751
aF177.89163221184751
aF177.89163221184751
aF177.89163221184751
aF177.89163221184751
aF177.89163221184751
aF177.89163221184751
aF177.89163221184751
aF178.3843997951906
aF180.10908633689149
aF178.3843997951906
aF178.3843997951906
aF180.10908633689149
aF180.10908633689149
aF180.10908633689149
aF181.09462150357771
aF181.09462150357771
aF182.08015667026393
aF182.08015667026393
aF182.81930804527858
aF182.81930804527858
aF183.55845942029325
aF183.80484321196479
aF183.80484321196479
aF183.80484321196479
aF186.02229733700881
aF186.02229733700881
aF187.99336767038125
aF189.96443800375366
aF189.96443800375366
aF189.96443800375366
aF189.96443800375366
aF189.96443800375366
aF190.21082179542523
aF190.21082179542523
aF190.70358937876833
aF191.68912454545455
aF192.92104350381231
aF192.92104350381231
aF193.41381108715544
aF193.66019487882699
aF193.66019487882699
aF193.66019487882699
aF193.66019487882699
aF193.66019487882699
aF194.15296246217008
aF194.15296246217008
aF193.66019487882699
aF194.15296246217008
aF193.66019487882699
aF193.66019487882699
aF192.92104350381231
aF191.68912454545455
aF190.70358937876833
aF189.96443800375366
aF189.96443800375366
aF189.96443800375366
aF189.96443800375366
aF189.96443800375366
aF187.99336767038125
aF186.02229733700881
aF186.02229733700881
aF185.03676217032256
aF183.80484321196479
aF182.81930804527858
aF182.32654046193548
aF182.08015667026393
aF182.08015667026393
aF180.10908633689149
aF180.10908633689149
aF177.89163221184751
aF177.89163221184751
aF177.15248083683284
aF175.92056187847507
aF175.67417808680352
aF174.93502671178885
aF174.19587533677418
aF174.19587533677418
aF174.19587533677418
aF174.19587533677418
aF174.19587533677418
aF174.19587533677418
aF174.19587533677418
aF174.19587533677418
aF174.19587533677418
aF174.19587533677418
aF174.19587533677418
aF174.19587533677418
aF174.19587533677418
aF174.19587533677418
aF174.44225912844573
aF174.93502671178885
aF174.93502671178885
aF174.93502671178885
aF175.92056187847507
aF175.92056187847507
aF177.15248083683284
aF177.89163221184751
aF178.87716737853373
aF180.10908633689149
aF180.10908633689149
aF180.10908633689149
aF180.10908633689149
aF181.09462150357771
aF181.09462150357771
aF182.08015667026393
aF182.08015667026393
aF182.32654046193548
aF183.80484321196479
aF182.81930804527858
aF183.80484321196479
aF183.80484321196479
aF183.80484321196479
aF186.02229733700881
aF187.99336767038125
aF187.99336767038125
aF187.99336767038125
aF189.96443800375366
aF189.96443800375366
aF189.96443800375366
aF189.96443800375366
aF189.96443800375366
aF190.70358937876833
aF191.68912454545455
aF191.68912454545455
aF191.68912454545455
aF192.92104350381231
aF193.41381108715544
aF193.66019487882699
aF194.15296246217008
aF195.87764900387094
aF195.87764900387094
aF195.87764900387094
aF195.87764900387094
aF195.87764900387094
aF195.87764900387094
aF195.87764900387094
aF194.15296246217008
aF193.66019487882699
aF194.6457300455132
aF193.66019487882699
aF193.66019487882699
aF193.66019487882699
aF192.92104350381231
aF191.68912454545455
aF190.21082179542523
aF189.96443800375366
aF189.96443800375366
aF189.96443800375366
aF189.96443800375366
aF189.96443800375366
aF187.99336767038125
aF186.02229733700881
aF185.03676217032256
aF183.80484321196479
aF182.81930804527858
aF182.08015667026393
aF181.09462150357771
aF180.10908633689149
aF180.10908633689149
aF178.87716737853373
aF177.89163221184751
aF177.15248083683284
aF175.92056187847507
aF174.93502671178885
aF174.44225912844573
aF174.19587533677418
aF173.21034017008796
aF172.22480500340174
aF172.22480500340174
aF172.22480500340174
aF170.2537346700293
aF170.2537346700293
aF170.2537346700293
aF169.26819950334308
aF168.03628054498532
aF169.26819950334308
aF170.2537346700293
aF170.2537346700293
aF170.2537346700293
aF170.2537346700293
aF170.2537346700293
aF170.2537346700293
aF170.2537346700293
aF170.2537346700293
aF170.50011846170088
aF172.22480500340174
aF172.22480500340174
aF173.21034017008796
aF174.19587533677418
aF174.19587533677418
aF174.19587533677418
aF174.19587533677418
aF174.19587533677418
aF174.44225912844573
aF175.92056187847507
aF175.92056187847507
aF177.89163221184751
aF177.89163221184751
aF177.89163221184751
aF180.10908633689149
aF181.09462150357771
aF181.09462150357771
aF182.08015667026393
aF182.08015667026393
aF182.32654046193548
aF183.80484321196479
aF183.80484321196479
aF186.02229733700881
aF186.02229733700881
aF186.02229733700881
aF187.99336767038125
aF189.96443800375366
aF189.96443800375366
aF189.96443800375366
aF189.96443800375366
aF189.96443800375366
aF189.96443800375366
aF189.96443800375366
aF190.21082179542523
aF191.442740753783
aF191.68912454545455
aF191.68912454545455
aF191.68912454545455
aF191.68912454545455
aF191.68912454545455
aF191.68912454545455
aF191.68912454545455
aF191.68912454545455
aF190.70358937876833
aF189.96443800375366
aF189.96443800375366
aF189.96443800375366
aF187.99336767038125
aF186.26868112868036
aF186.02229733700881
aF185.03676217032256
aF185.03676217032256
aF183.80484321196479
aF182.81930804527858
aF182.32654046193548
aF182.08015667026393
aF180.10908633689149
aF180.10908633689149
aF177.89163221184751
aF177.64524842017593
aF177.15248083683284
aF175.92056187847507
aF175.67417808680352
aF174.19587533677418
aF174.19587533677418
aF172.22480500340174
aF172.22480500340174
aF172.22480500340174
aF170.2537346700293
aF170.2537346700293
aF169.26819950334308
aF168.03628054498532
aF168.03628054498532
aF167.05074537829913
aF168.03628054498532
aF167.05074537829913
aF167.05074537829913
aF167.05074537829913
aF167.78989675331377
aF168.03628054498532
aF168.03628054498532
aF168.03628054498532
aF168.03628054498532
aF168.03628054498532
aF169.26819950334308
aF170.2537346700293
aF170.2537346700293
aF170.50011846170088
aF172.22480500340174
aF172.22480500340174
aF172.22480500340174
aF174.19587533677418
aF174.19587533677418
aF174.19587533677418
aF174.19587533677418
aF174.19587533677418
aF174.44225912844573
aF175.92056187847507
aF175.92056187847507
aF177.15248083683284
aF177.89163221184751
aF177.89163221184751
aF178.87716737853373
aF180.10908633689149
aF180.10908633689149
aF180.10908633689149
aF182.08015667026393
aF182.08015667026393
aF182.81930804527858
aF182.81930804527858
aF183.80484321196479
aF183.80484321196479
aF186.02229733700881
aF186.02229733700881
aF186.02229733700881
aF186.26868112868036
aF187.99336767038125
aF187.99336767038125
aF189.96443800375366
aF189.96443800375366
aF189.96443800375366
aF189.96443800375366
aF189.96443800375366
aF189.96443800375366
aF189.96443800375366
aF189.96443800375366
aF189.96443800375366
aF189.96443800375366
aF187.99336767038125
aF187.99336767038125
aF186.26868112868036
aF186.02229733700881
aF186.02229733700881
aF185.03676217032256
aF183.80484321196479
aF183.80484321196479
aF182.81930804527858
aF182.08015667026393
aF182.08015667026393
aF181.09462150357771
aF180.10908633689149
aF178.3843997951906
aF177.89163221184751
aF177.64524842017593
aF177.15248083683284
aF174.93502671178885
aF174.44225912844573
aF174.19587533677418
aF174.19587533677418
aF174.19587533677418
aF172.22480500340174
aF172.22480500340174
aF170.2537346700293
aF170.2537346700293
aF169.26819950334308
aF169.26819950334308
aF168.03628054498532
aF168.03628054498532
aF167.05074537829913
aF167.05074537829913
aF166.06521021161291
aF166.06521021161291
aF166.06521021161291
aF166.06521021161291
aF166.06521021161291
aF166.06521021161291
aF166.06521021161291
aF166.06521021161291
aF166.557977794956
aF167.05074537829913
aF168.03628054498532
aF168.03628054498532
aF168.03628054498532
aF169.26819950334308
aF170.2537346700293
aF170.50011846170088
aF170.50011846170088
aF170.50011846170088
aF172.22480500340174
aF172.22480500340174
aF173.21034017008796
aF174.19587533677418
aF174.19587533677418
aF174.19587533677418
aF174.44225912844573
aF174.93502671178885
aF175.92056187847507
aF175.92056187847507
aF175.92056187847507
aF177.89163221184751
aF178.3843997951906
aF180.10908633689149
aF178.87716737853373
aF180.10908633689149
aF180.10908633689149
aF181.09462150357771
aF182.08015667026393
aF182.08015667026393
aF182.81930804527858
aF182.81930804527858
aF183.80484321196479
aF183.80484321196479
aF185.03676217032256
aF185.52952975366568
aF186.02229733700881
aF186.02229733700881
aF186.02229733700881
aF186.02229733700881
aF186.02229733700881
aF186.02229733700881
aF186.02229733700881
aF185.03676217032256
aF185.03676217032256
aF185.03676217032256
aF183.80484321196479
aF182.81930804527858
aF182.08015667026393
aF182.08015667026393
aF182.08015667026393
aF181.09462150357771
aF180.10908633689149
aF180.10908633689149
aF180.10908633689149
aF177.89163221184751
aF177.64524842017593
aF175.92056187847507
aF175.92056187847507
aF174.44225912844573
aF174.44225912844573
aF174.19587533677418
aF174.19587533677418
aF172.22480500340174
aF172.22480500340174
aF170.2537346700293
aF169.26819950334308
aF168.03628054498532
aF168.03628054498532
aF166.557977794956
aF166.06521021161291
aF166.06521021161291
aF165.81882641994136
aF165.32605883659824
aF165.32605883659824
aF165.32605883659824
aF165.32605883659824
aF165.32605883659824
aF165.32605883659824
aF165.32605883659824
aF164.34052366991205
aF165.32605883659824
aF164.34052366991205
aF164.34052366991205
aF164.34052366991205
aF164.34052366991205
aF164.34052366991205
aF164.34052366991205
aF164.34052366991205
aF162.61583712821115
aF162.61583712821115
aF162.12306954486803
aF162.12306954486803
aF161.87668575319648
aF161.38391816985339
aF160.15199921149556
aF160.15199921149556
aF159.16646404480935
aF158.18092887812315
aF158.18092887812315
aF157.93454508645158
aF157.44177750310848
aF156.45624233642226
aF156.45624233642226
aF156.45624233642226
aF155.2243233780645
aF154.48517200304985
aF154.48517200304985
aF152.26771787800587
aF152.26771787800587
aF151.28218271131965
aF150.54303133630498
aF150.54303133630498
aF149.55749616961876
aF148.57196100293254
aF148.57196100293254
aF146.35450687788855
aF146.35450687788855
aF144.38343654451612
aF144.38343654451612
aF144.38343654451612
aF142.41236621114368
aF142.41236621114368
aF142.41236621114368
aF142.41236621114368
aF141.67321483612903
aF141.67321483612903
aF140.68767966944282
aF140.68767966944282
aF140.68767966944282
aF138.71660933607041
aF138.71660933607041
aF138.71660933607041
aF136.49915521102639
aF136.49915521102639
aF136.49915521102639
aF135.51362004434014
aF135.02085246099705
aF134.52808487765392
aF134.52808487765392
aF133.78893350263928
aF133.78893350263928
aF132.80339833595306
aF132.80339833595306
aF130.58594421090908
aF130.58594421090908
aF130.3395604192375
aF129.84679283589441
aF128.61487387753667
aF128.61487387753667
aF128.61487387753667
aF127.13657112750732
aF126.64380354416423
aF125.90465216914956
aF124.91911700246335
aF124.91911700246335
aF124.91911700246335
aF123.19443046076246
aF122.94804666909091
aF122.94804666909091
aF121.96251150240469
aF121.96251150240469
aF120.73059254404693
aF120.73059254404693
aF120.48420875237538
aF119.74505737736071
aF119.25228979401761
aF119.25228979401761
aF119.25228979401761
aF119.25228979401761
aF119.00590600234604
aF118.02037083565983
aF118.02037083565983
aF117.03483566897361
aF117.03483566897361
aF117.03483566897361
aF117.03483566897361
aF115.31014912727275
aF114.81738154392963
aF114.57099775225808
aF114.07823016891498
aF112.84631121055719
aF112.84631121055719
aF112.84631121055719
aF112.84631121055719
aF111.86077604387097
aF111.36800846052786
aF111.12162466885631
aF111.12162466885631
aF111.12162466885631
aF111.12162466885631
aF111.12162466885631
aF110.13608950217009
aF109.15055433548387
aF109.15055433548387
aF109.15055433548387
aF109.15055433548387
aF109.15055433548387
aF107.91863537712611
aF107.42586779378298
aF107.42586779378298
aF107.17948400211144
aF107.17948400211144
aF107.17948400211144
aF106.19394883542522
aF106.19394883542522
aF104.96202987706745
aF104.96202987706745
aF104.96202987706745
aF103.97649471038125
aF103.97649471038125
aF102.99095954369503
aF102.99095954369503
aF102.99095954369503
aF102.99095954369503
aF102.25180816868036
aF102.25180816868036
aF102.25180816868036
aF102.25180816868036
aF101.26627300199414
aF101.26627300199414
aF101.26627300199414
aF101.26627300199414
aF101.26627300199414
aF99.048818876950151
aF99.048818876950151
aF99.048818876950151
aF99.048818876950151
aF98.802435085278589
aF98.309667501935479
aF97.077748543577727
aF97.077748543577727
aF97.077748543577727
aF97.077748543577727
aF96.092213376891507
aF95.599445793548398
aF95.599445793548398
aF95.599445793548398
aF95.353062001876836
aF95.353062001876836
aF95.353062001876836
aF95.353062001876836
aF95.353062001876836
aF95.353062001876836
aF95.353062001876836
aF95.353062001876836
aF95.353062001876836
aF93.381991668504412
aF93.381991668504412
aF93.381991668504412
aF93.381991668504412
aF91.657305126803521
aF91.657305126803521
aF91.410921335131974
aF91.410921335131974
aF91.410921335131974
aF91.410921335131974
aF91.410921335131974
aF91.410921335131974
aF90.425386168445755
aF89.193467210087974
aF89.193467210087974
aF89.193467210087974
aF89.193467210087974
aF89.193467210087974
aF88.947083418416426
aF88.207932043401769
aF87.715164460058659
aF87.715164460058659
aF87.468780668387097
aF87.468780668387097
aF87.468780668387097
aF87.468780668387097
aF87.468780668387097
aF87.468780668387097
aF87.468780668387097
aF87.468780668387097
aF87.468780668387097
aF87.468780668387097
aF86.483245501700878
aF86.483245501700878
aF85.497710335014659
aF85.497710335014659
aF85.497710335014659
aF85.497710335014659
aF85.497710335014659
aF85.497710335014659
aF83.773023793313797
aF83.773023793313797
aF83.280256209970688
aF83.280256209970688
aF83.280256209970688
aF83.280256209970688
aF83.033872418299126
aF82.54110483495603
aF82.54110483495603
aF82.54110483495603
aF81.309185876598249
aF81.309185876598249
aF81.309185876598249
aF81.309185876598249
aF81.309185876598249
aF81.309185876598249
aF81.309185876598249
aF81.309185876598249
aF80.323650709912016
aF80.323650709912016
aF80.323650709912016
aF80.323650709912016
aF79.338115543225797
aF79.338115543225797
aF79.338115543225797
aF79.338115543225797
aF79.338115543225797
aF79.091731751554249
aF79.091731751554249
aF78.59896416821114
aF78.59896416821114
aF77.613429001524935
aF77.613429001524935
aF77.613429001524935
aF77.613429001524935
aF77.613429001524935
aF77.613429001524935
aF77.613429001524935
aF77.613429001524935
aF77.613429001524935
aF77.613429001524935
aF76.381510043167168
aF75.888742459824059
aF75.642358668152497
aF75.642358668152497
aF75.642358668152497
aF75.642358668152497
aF75.642358668152497
aF75.642358668152497
aF75.149591084809387
aF74.656823501466278
aF73.424904543108511
aF73.424904543108511
aF73.424904543108511
aF73.424904543108511
aF73.424904543108511
aF73.424904543108511
aF73.424904543108511
aF73.424904543108511
aF72.439369376422292
aF73.424904543108511
aF72.439369376422292
aF72.439369376422292
aF72.439369376422292
aF72.439369376422292
aF72.439369376422292
aF72.439369376422292
aF71.946601793079182
aF71.946601793079182
aF71.946601793079182
aF71.453834209736073
aF71.453834209736073
aF71.453834209736073
aF71.453834209736073
aF71.207450418064525
aF70.714682834721415
aF70.714682834721415
aF70.714682834721415
aF70.714682834721415
aF70.714682834721415
aF70.714682834721415
aF69.72914766803521
aF69.72914766803521
aF69.72914766803521
aF69.72914766803521
aF69.72914766803521
aF69.72914766803521
aF69.72914766803521
aF69.72914766803521
aF69.72914766803521
aF69.72914766803521
aF69.72914766803521
aF68.497228709677429
aF69.72914766803521
aF68.004461126334306
aF67.511693542991196
aF67.511693542991196
aF67.511693542991196
aF67.511693542991196
aF67.511693542991196
aF67.511693542991196
aF67.265309751319649
aF67.511693542991196
aF67.265309751319649
aF67.265309751319649
aF66.772542167976539
aF66.772542167976539
aF65.540623209618758
aF65.540623209618758
aF65.540623209618758
aF65.540623209618758
aF65.540623209618758
aF65.540623209618758
aF65.540623209618758
aF65.540623209618758
aF65.540623209618758
aF65.540623209618758
aF65.540623209618758
aF65.540623209618758
aF65.29423941794721
aF63.569552876246341
aF63.569552876246341
aF63.569552876246341
aF63.569552876246341
aF63.569552876246341
aF63.569552876246341
aF63.569552876246341
aF63.569552876246341
aF63.569552876246341
aF63.569552876246341
aF63.569552876246341
aF63.569552876246341
aF63.569552876246341
aF63.569552876246341
aF63.323169084574779
aF63.569552876246341
aF63.323169084574779
aF63.323169084574779
aF63.323169084574779
aF62.830401501231677
aF62.830401501231677
aF62.830401501231677
aF62.830401501231677
aF61.844866334545458
aF62.830401501231677
aF61.844866334545458
aF61.844866334545458
aF61.844866334545458
aF61.844866334545458
aF61.844866334545458
aF61.844866334545458
aF61.844866334545458
aF61.844866334545458
aF61.844866334545458
aF61.844866334545458
aF61.844866334545458
aF61.844866334545458
aF61.844866334545458
aF60.612947376187691
aF60.612947376187691
aF60.612947376187691
aF60.120179792844581
aF60.120179792844581
aF60.120179792844581
aF60.120179792844581
aF59.873796001173019
aF59.873796001173019
aF59.873796001173019
aF59.873796001173019
aF59.873796001173019
aF59.873796001173019
aF59.873796001173019
aF59.873796001173019
aF59.873796001173019
aF59.381028417829917
aF58.888260834486807
aF58.888260834486807
aF58.888260834486807
aF58.888260834486807
aF57.656341876129041
aF57.656341876129041
aF57.656341876129041
aF57.656341876129041
aF57.656341876129041
aF57.656341876129041
aF57.656341876129041
aF57.656341876129041
aF57.656341876129041
aF57.656341876129041
aF57.409958084457493
aF57.656341876129041
aF56.670806709442822
aF56.670806709442822
aF56.670806709442822
aF57.409958084457493
aF56.178039126099712
aF56.670806709442822
aF56.670806709442822
aF56.670806709442822
aF56.178039126099712
aF56.178039126099712
aF56.178039126099712
aF56.178039126099712
aF56.178039126099712
aF56.178039126099712
aF55.931655334428157
aF55.931655334428157
aF55.931655334428157
aF55.931655334428157
aF55.931655334428157
aF55.931655334428157
aF55.931655334428157
aF55.931655334428157
aF55.931655334428157
aF55.931655334428157
aF55.931655334428157
aF55.931655334428157
aF55.931655334428157
aF54.946120167741938
aF54.946120167741938
aF54.946120167741938
aF54.946120167741938
aF54.946120167741938
aF54.946120167741938
aF54.946120167741938
aF53.960585001055719
aF54.946120167741938
aF53.960585001055719
aF53.960585001055719
aF53.960585001055719
aF53.960585001055719
aF53.960585001055719
aF53.960585001055719
aF53.960585001055719
aF53.960585001055719
aF53.960585001055719
aF53.960585001055719
aF53.960585001055719
aF53.960585001055719
aF53.960585001055719
aF52.728666042697945
aF52.728666042697945
aF52.728666042697945
aF52.728666042697945
aF52.728666042697945
aF52.235898459354836
aF52.235898459354836
aF52.235898459354836
aF51.743130876011726
aF52.235898459354836
aF51.743130876011726
aF51.743130876011726
aF51.743130876011726
aF51.743130876011726
aF51.743130876011726
aF51.743130876011726
aF51.743130876011726
aF51.743130876011726
aF51.743130876011726
aF51.743130876011726
aF51.743130876011726
aF51.743130876011726
aF51.496747084340178
aF51.496747084340178
aF51.496747084340178
aF51.003979500997069
aF51.003979500997069
aF51.496747084340178
aF51.496747084340178
aF51.496747084340178
aF51.496747084340178
aF51.003979500997069
aF51.003979500997069
aF51.003979500997069
aF51.003979500997069
aF51.003979500997069
aF49.772060542639295
aF49.772060542639295
aF49.772060542639295
aF49.772060542639295
aF49.772060542639295
aF49.772060542639295
aF49.772060542639295
aF49.772060542639295
aF49.772060542639295
aF49.772060542639295
aF49.772060542639295
aF49.772060542639295
aF49.772060542639295
aF49.52567675096774
aF48.786525375953083
aF48.786525375953083
aF49.772060542639295
aF48.786525375953083
aF48.786525375953083
aF48.786525375953083
aF48.786525375953083
aF48.786525375953083
aF48.786525375953083
aF48.293757792609973
aF48.047374000938419
aF48.293757792609973
aF48.786525375953083
aF48.293757792609973
aF48.293757792609973
aF48.047374000938419
aF48.047374000938419
aF48.047374000938419
aF48.047374000938419
aF48.047374000938419
aF48.293757792609973
aF48.047374000938419
aF48.047374000938419
aF48.047374000938419
aF48.047374000938419
aF48.047374000938419
aF48.047374000938419
aF48.047374000938419
aF48.047374000938419
aF48.047374000938419
aF48.047374000938419
aF48.047374000938419
aF48.047374000938419
aF48.047374000938419
aF48.047374000938419
aF48.047374000938419
aF48.047374000938419
aF48.047374000938419
aF48.047374000938419
aF48.047374000938419
aF48.047374000938419
aF48.047374000938419
aF48.047374000938419
aF48.047374000938419
aF48.047374000938419
aF48.047374000938419
aF47.061838834252207
aF47.061838834252207
aF47.061838834252207
aF46.076303667565988
aF47.061838834252207
aF46.076303667565988
aF47.061838834252207
aF47.061838834252207
aF46.076303667565988
aF46.076303667565988
aF46.076303667565988
aF46.076303667565988
aF46.076303667565988
aF46.076303667565988
aF46.076303667565988
aF46.076303667565988
aF46.076303667565988
aF46.076303667565988
aF46.076303667565988
aF46.076303667565988
aF46.076303667565988
aF46.076303667565988
aF46.076303667565988
aF46.076303667565988
aF46.076303667565988
aF46.076303667565988
aF46.076303667565988
aF46.076303667565988
aF46.076303667565988
aF46.076303667565988
aF46.076303667565988
aF46.076303667565988
aF46.076303667565988
aF46.076303667565988
aF46.076303667565988
aF46.076303667565988
aF46.076303667565988
aF44.351617125865104
aF44.351617125865104
aF44.844384709208214
aF44.844384709208214
aF44.844384709208214
aF44.844384709208214
aF44.351617125865104
aF44.105233334193549
aF44.105233334193549
aF44.105233334193549
aF44.105233334193549
aF44.105233334193549
aF44.105233334193549
aF44.105233334193549
aF44.105233334193549
aF44.105233334193549
aF44.105233334193549
aF44.105233334193549
aF44.105233334193549
aF44.105233334193549
aF44.105233334193549
aF44.105233334193549
aF44.105233334193549
aF44.105233334193549
aF44.105233334193549
aF44.105233334193549
aF44.105233334193549
aF44.105233334193549
aF44.105233334193549
aF44.105233334193549
aF44.105233334193549
aF43.61246575085044
aF43.11969816750733
aF43.11969816750733
aF43.11969816750733
aF44.105233334193549
aF43.11969816750733
aF43.11969816750733
aF43.11969816750733
aF41.887779209149564
aF41.887779209149564
aF43.11969816750733
aF43.11969816750733
aF41.887779209149564
aF41.887779209149564
aF41.887779209149564
aF41.887779209149564
aF41.887779209149564
aF41.887779209149564
aF41.887779209149564
aF41.887779209149564
aF41.887779209149564
aF41.887779209149564
aF41.887779209149564
aF41.887779209149564
aF41.887779209149564
aF41.887779209149564
aF41.887779209149564
aF41.887779209149564
aF41.887779209149564
aF41.887779209149564
aF41.887779209149564
aF41.887779209149564
aF41.887779209149564
aF41.887779209149564
aF41.887779209149564
aF41.887779209149564
aF41.887779209149564
aF41.887779209149564
aF41.887779209149564
aF41.641395417478016
aF41.641395417478016
aF40.902244042463352
aF41.641395417478016
aF41.641395417478016
aF41.641395417478016
aF41.887779209149564
aF40.902244042463352
aF40.902244042463352
aF40.902244042463352
aF40.902244042463352
aF40.902244042463352
aF40.902244042463352
aF40.902244042463352
aF40.902244042463352
aF40.902244042463352
aF40.902244042463352
aF40.902244042463352
aF40.409476459120235
aF40.902244042463352
aF40.902244042463352
aF39.916708875777125
aF39.916708875777125
aF40.902244042463352
aF39.916708875777125
aF39.916708875777125
aF39.916708875777125
aF39.916708875777125
aF39.916708875777125
aF39.916708875777125
aF39.916708875777125
aF39.916708875777125
aF39.916708875777125
aF39.916708875777125
aF39.916708875777125
aF39.916708875777125
aF39.916708875777125
aF39.916708875777125
aF39.916708875777125
aF39.916708875777125
aF39.916708875777125
aF39.916708875777125
aF39.670325084105571
aF39.916708875777125
aF39.916708875777125
aF39.916708875777125
aF39.670325084105571
aF39.670325084105571
aF39.916708875777125
aF39.916708875777125
aF39.916708875777125
aF39.670325084105571
aF39.670325084105571
aF39.670325084105571
aF39.670325084105571
aF39.670325084105571
aF39.670325084105571
aF39.670325084105571
aF39.177557500762468
aF39.670325084105571
aF39.670325084105571
aF39.670325084105571
aF39.177557500762468
aF39.177557500762468
aF39.177557500762468
aF39.177557500762468
aF39.177557500762468
aF39.177557500762468
aF39.177557500762468
aF39.177557500762468
aF39.177557500762468
aF39.177557500762468
aF38.192022334076249
aF39.177557500762468
aF39.177557500762468
aF38.192022334076249
aF39.177557500762468
aF39.177557500762468
aF39.177557500762468
aF39.177557500762468
aF39.177557500762468
aF38.192022334076249
aF39.177557500762468
aF39.177557500762468
aF38.192022334076249
aF39.177557500762468
aF38.192022334076249
aF38.192022334076249
aF38.192022334076249
aF38.192022334076249
aF38.192022334076249
aF38.192022334076249
aF38.192022334076249
aF38.192022334076249
aF38.192022334076249
aF38.192022334076249
aF38.192022334076249
aF38.192022334076249
aF38.192022334076249
aF38.192022334076249
aF38.192022334076249
aF38.192022334076249
aF38.192022334076249
aF38.192022334076249
aF38.192022334076249
aF38.192022334076249
aF38.192022334076249
aF38.192022334076249
aF38.192022334076249
aF38.192022334076249
aF38.192022334076249
aF38.192022334076249
aF38.192022334076249
aF38.192022334076249
aF38.192022334076249
aF36.960103375718475
aF38.192022334076249
aF38.192022334076249
aF36.960103375718475
aF38.192022334076249
aF38.192022334076249
aF36.467335792375366
aF38.192022334076249
aF36.467335792375366
aF36.467335792375366
aF36.960103375718475
aF36.467335792375366
aF36.960103375718475
aF36.467335792375366
aF36.467335792375366
aF36.467335792375366
aF36.467335792375366
aF36.467335792375366
aF35.974568209032263
aF35.974568209032263
aF36.467335792375366
aF35.974568209032263
aF35.974568209032263
aF35.974568209032263
aF35.974568209032263
aF35.974568209032263
aF35.974568209032263
aF35.974568209032263
aF35.974568209032263
aF35.974568209032263
aF35.974568209032263
aF35.974568209032263
aF35.974568209032263
aF35.974568209032263
aF35.974568209032263
aF35.974568209032263
aF35.974568209032263
aF35.974568209032263
aF35.974568209032263
aF35.974568209032263
aF35.974568209032263
aF35.974568209032263
aF35.974568209032263
aF35.974568209032263
aF35.974568209032263
aF35.974568209032263
aF35.974568209032263
aF35.974568209032263
aF35.974568209032263
aF35.974568209032263
aF35.974568209032263
aF35.974568209032263
aF35.974568209032263
aF35.974568209032263
aF35.974568209032263
aF35.728184417360708
aF35.728184417360708
aF35.728184417360708
aF35.728184417360708
aF35.728184417360708
aF35.974568209032263
aF35.728184417360708
aF35.728184417360708
aF35.728184417360708
aF35.728184417360708
aF35.728184417360708
aF35.728184417360708
aF35.728184417360708
aF35.728184417360708
aF35.235416834017606
aF35.728184417360708
aF35.728184417360708
aF35.728184417360708
aF35.728184417360708
aF35.728184417360708
aF35.728184417360708
aF35.235416834017606
aF35.235416834017606
aF35.235416834017606
aF35.235416834017606
aF35.728184417360708
aF35.728184417360708
aF35.728184417360708
aF35.235416834017606
aF35.235416834017606
aF35.235416834017606
aF35.235416834017606
aF35.235416834017606
aF35.235416834017606
aF34.003497875659825
aF34.003497875659825
aF35.235416834017606
aF35.235416834017606
aF35.235416834017606
aF35.235416834017606
aF34.003497875659825
aF35.235416834017606
aF35.235416834017606
aF35.235416834017606
aF34.003497875659825
aF34.003497875659825
aF34.003497875659825
aF34.003497875659825
aF34.003497875659825
aF34.003497875659825
aF35.235416834017606
aF34.003497875659825
aF34.003497875659825
aF34.003497875659825
aF34.003497875659825
aF34.003497875659825
aF34.003497875659825
aF34.003497875659825
aF34.003497875659825
aF34.003497875659825
aF34.003497875659825
aF34.003497875659825
aF34.003497875659825
aF34.003497875659825
aF34.003497875659825
aF34.003497875659825
aF34.003497875659825
aF34.003497875659825
aF34.003497875659825
aF34.003497875659825
aF34.003497875659825
aF34.003497875659825
aF34.003497875659825
aF34.003497875659825
aF34.003497875659825
aF34.003497875659825
aF34.003497875659825
aF34.003497875659825
aF34.003497875659825
aF34.003497875659825
aF34.003497875659825
aF34.003497875659825
aF34.003497875659825
aF34.003497875659825
aF34.003497875659825
aF34.003497875659825
aF34.003497875659825
aF34.003497875659825
aF34.003497875659825
aF34.003497875659825
aF34.003497875659825
aF33.75711408398827
aF34.003497875659825
aF33.75711408398827
aF33.75711408398827
aF33.75711408398827
aF33.75711408398827
aF34.003497875659825
aF33.75711408398827
aF33.017962708973606
aF33.75711408398827
aF33.017962708973606
aF33.75711408398827
aF33.017962708973606
aF33.017962708973606
aF33.75711408398827
aF33.017962708973606
aF33.017962708973606
aF33.75711408398827
aF33.017962708973606
aF33.017962708973606
aF33.017962708973606
aF33.017962708973606
aF33.017962708973606
aF33.75711408398827
aF33.017962708973606
aF33.017962708973606
aF33.017962708973606
aF33.017962708973606
aF33.017962708973606
aF33.017962708973606
aF33.017962708973606
aF33.017962708973606
aF33.017962708973606
aF33.017962708973606
aF33.017962708973606
aF32.525195125630496
aF32.032427542287387
aF32.032427542287387
aF33.017962708973606
aF32.032427542287387
aF32.032427542287387
aF32.525195125630496
aF32.525195125630496
aF32.032427542287387
aF33.017962708973606
aF32.032427542287387
aF32.525195125630496
aF32.525195125630496
aF33.017962708973606
aF33.017962708973606
aF32.032427542287387
aF32.032427542287387
aF32.032427542287387
aF32.032427542287387
aF32.032427542287387
aF32.032427542287387
aF32.032427542287387
aF32.032427542287387
aF32.032427542287387
aF32.032427542287387
aF32.032427542287387
aF32.032427542287387
aF32.032427542287387
aF32.032427542287387
aF32.032427542287387
aF32.032427542287387
aF32.032427542287387
aF32.032427542287387
aF32.032427542287387
aF32.032427542287387
aF32.032427542287387
aF32.032427542287387
aF32.032427542287387
aF32.032427542287387
asS'time_list'
p4
(lp5
F0
aF1.0034961700439453
aF2.0070030689239502
aF3.0109231472015381
aF4.0148410797119141
aF5.0188300609588623
aF6.0227539539337158
aF7.0258951187133789
aF8.0295419692993164
aF9.0334541797637939
aF10.037306070327759
aF11.041294097900391
aF12.045212030410767
aF13.049137115478516
aF14.053051948547363
aF15.056972026824951
aF16.060896158218384
aF17.064819097518921
aF18.068747043609619
aF19.072657108306885
aF20.076576948165894
aF21.080499172210693
aF22.084418058395386
aF23.088364124298096
aF24.092260122299194
aF25.096181154251099
aF26.100106954574585
aF27.104022979736328
aF28.107944965362549
aF29.11186695098877
aF30.115828990936279
aF31.119724988937378
aF32.123636960983276
aF33.12755012512207
aF34.131469011306763
aF35.135393142700195
aF36.139319181442261
aF37.143232107162476
aF38.147150039672852
aF39.15107798576355
aF40.154998064041138
aF41.158920049667358
aF42.162844181060791
aF43.166759967803955
aF44.170680999755859
aF45.174116134643555
aF46.177525043487549
aF47.181458950042725
aF48.185367107391357
aF49.18928599357605
aF50.192209959030151
aF51.196129083633423
aF52.200057029724121
aF53.20396900177002
aF54.207895040512085
aF55.211567163467407
aF56.215733051300049
aF57.219655990600586
aF58.223582983016968
aF59.227503061294556
aF60.231415987014771
aF61.23533296585083
aF62.239096164703369
aF63.243185997009277
aF64.247115135192871
aF65.251023054122925
aF66.254947185516357
aF67.258862018585205
aF68.262788057327271
aF69.266710042953491
aF70.270634174346924
aF71.2745521068573
aF72.278468132019043
aF73.282392024993896
aF74.28632116317749
aF75.290095090866089
aF76.294156074523926
aF77.298073053359985
aF78.302008152008057
aF79.304975032806396
aF80.308328151702881
aF81.311758041381836
aF82.315685033798218
aF83.318603992462158
aF84.322520971298218
aF85.326447010040283
aF86.330368995666504
aF87.334289073944092
aF88.337510108947754
aF89.341139078140259
aF90.34504508972168
aF91.348973035812378
aF92.351948022842407
aF93.355807065963745
aF94.359706163406372
aF95.363659143447876
aF96.367630004882812
aF97.371103048324585
aF98.374413967132568
aF99.377938985824585
aF100.38125705718994
aF101.38912510871887
aF102.39310503005981
aF103.39702010154724
aF104.40099811553955
aF105.40485715866089
aF106.40877795219421
aF107.41270399093628
aF108.41662311553955
aF109.42054200172424
aF110.42446208000183
aF111.42839097976685
aF112.43230414390564
aF113.43623018264771
aF114.44014501571655
aF115.44408202171326
aF116.44802308082581
aF117.4519100189209
aF118.45582795143127
aF119.45975017547607
aF120.46367216110229
aF121.46760296821594
aF122.47151517868042
aF123.47543597221375
aF124.47935700416565
aF125.48327708244324
aF126.48719716072083
aF127.49112415313721
aF128.4950430393219
aF129.49896097183228
aF130.50288605690002
aF131.50685095787048
aF132.51072406768799
aF133.5145001411438
aF134.51858901977539
aF135.52249217033386
aF136.52641010284424
aF137.53032898902893
aF138.53425407409668
aF139.53818917274475
aF140.54209303855896
aF141.54602098464966
aF142.54993295669556
aF143.55385899543762
aF144.55781602859497
aF145.5613420009613
aF146.56562399864197
aF147.56944298744202
aF148.5734691619873
aF149.57738709449768
aF150.58130216598511
aF151.58522295951843
aF152.58914613723755
aF153.59306716918945
aF154.59698414802551
aF155.60090517997742
aF156.60482716560364
aF157.6088171005249
aF158.61267018318176
aF159.6165931224823
aF160.62775301933289
aF161.63143515586853
aF162.63535213470459
aF163.6392719745636
aF164.64319205284119
aF165.64714097976685
aF166.65103507041931
aF167.65496397018433
aF168.65887904167175
aF169.66279602050781
aF170.66671705245972
aF171.67063903808594
aF172.67456102371216
aF173.67848205566406
aF174.68240904808044
aF175.68632507324219
aF176.69024205207825
aF177.69416403770447
aF178.69808912277222
aF179.70201802253723
aF180.70592904090881
aF181.70984697341919
aF182.71376895904541
aF183.71754002571106
aF184.72161507606506
aF185.72554016113281
aF186.72945308685303
aF187.73337316513062
aF188.73729610443115
aF189.74121618270874
aF190.74438714981079
aF191.74805903434753
aF192.75197911262512
aF193.75524806976318
aF194.75882911682129
aF195.76281118392944
aF196.76672101020813
aF197.77058815956116
aF198.77450609207153
aF199.77843618392944
aF200.78234815597534
aF201.78627300262451
aF202.79019212722778
aF203.7934730052948
aF204.79703307151794
aF205.80096197128296
aF206.80487298965454
aF207.80880212783813
aF208.81271505355835
aF209.81663513183594
aF210.82055616378784
aF211.82447600364685
aF212.82818412780762
aF213.83231997489929
aF214.83626699447632
aF215.8401620388031
aF216.84408211708069
aF217.84749317169189
aF218.85014200210571
aF219.8533251285553
aF220.85648918151855
aF221.86069011688232
aF222.8646080493927
aF223.86849308013916
aF224.87245202064514
aF225.87637114524841
aF226.88029313087463
aF227.88392305374146
aF228.88813805580139
aF229.89206314086914
aF230.89597296714783
aF231.89989709854126
aF232.90381908416748
aF233.90691614151001
aF234.91068005561829
aF235.91378712654114
aF236.9175021648407
aF237.92142915725708
aF238.92534303665161
aF239.92926406860352
aF240.93319010734558
aF241.93711113929749
aF242.94060707092285
aF243.94314408302307
aF244.94686913490295
aF245.95078897476196
aF246.95471405982971
aF247.9586341381073
aF248.96255207061768
aF249.96647596359253
aF250.97040605545044
aF251.97431612014771
aF252.97799396514893
aF253.98198509216309
aF254.98608207702637
aF255.99000716209412
aF256.99390006065369
aF257.99764394760132
aF259.00096297264099
aF260.00468301773071
aF261.00860810279846
aF262.01252508163452
aF263.01644396781921
aF264.02036595344543
aF265.02348303794861
aF266.02721214294434
aF267.03022503852844
aF268.03405904769897
aF269.03798699378967
aF270.04189205169678
aF271.04581713676453
aF272.0497350692749
aF273.05366516113281
aF274.05757808685303
aF275.06095910072327
aF276.06398797035217
aF277.06734108924866
aF278.07126808166504
aF279.07519197463989
aF280.07910418510437
aF281.0830249786377
aF282.0869460105896
aF283.09087204933167
aF284.09440398216248
aF285.09770703315735
aF286.10162997245789
aF287.1050021648407
aF288.10847115516663
aF289.1123960018158
aF290.11631298065186
aF291.12023401260376
aF292.12416005134583
aF293.12807512283325
aF294.13199710845947
aF295.13591814041138
aF296.13983917236328
aF297.14375901222229
aF298.14671301841736
aF299.15060496330261
aF300.15452814102173
aF301.15844106674194
aF302.16236400604248
aF303.16629314422607
aF304.17020416259766
aF305.17356014251709
aF306.17704916000366
aF307.18096804618835
aF308.18489003181458
aF309.18881011009216
aF310.19272994995117
aF311.19667410850525
aF312.20057415962219
aF313.20453095436096
aF314.20841503143311
aF315.21233797073364
aF316.21625900268555
aF317.22018694877625
aF318.22409915924072
aF319.22801899909973
aF320.23194599151611
aF321.23586010932922
aF322.23978900909424
aF323.24370503425598
aF324.24762916564941
aF325.25059008598328
aF326.25395607948303
aF327.25739312171936
aF328.26146101951599
aF329.2652370929718
aF330.26915097236633
aF331.27278208732605
aF332.27699398994446
aF333.28091597557068
aF334.28511810302734
aF335.2887601852417
aF336.29269218444824
aF337.29659509658813
aF338.30016303062439
aF339.30444097518921
aF340.30836510658264
aF341.31228113174438
aF342.31620502471924
aF343.32012104988098
aF344.32404518127441
aF345.32753610610962
aF346.33088898658752
aF347.33480906486511
aF348.3387291431427
aF349.34265208244324
aF350.34657001495361
aF351.35049915313721
aF352.35441207885742
aF353.35833215713501
aF354.36225295066833
aF355.36617612838745
aF356.37010812759399
aF357.37403702735901
aF358.37719416618347
aF359.38085913658142
aF360.38478302955627
aF361.38870596885681
aF362.39265608787537
aF363.39654016494751
aF364.40046715736389
aF365.40438318252563
aF366.40831208229065
aF367.41223001480103
aF368.41615414619446
aF369.42007112503052
aF370.42398595809937
aF371.42785096168518
aF372.43182802200317
aF373.43575000762939
aF374.43969297409058
aF375.44338607788086
aF376.44751501083374
aF377.45143413543701
aF378.45535612106323
aF379.45927715301514
aF380.46320509910583
aF381.46712303161621
aF382.47104406356812
aF383.47496104240417
aF384.47865104675293
aF385.48280596733093
aF386.48673105239868
aF387.49064707756042
aF388.49457001686096
aF389.49848604202271
aF390.50212812423706
aF391.50633001327515
aF392.5102481842041
aF393.51417016983032
aF394.51809096336365
aF395.52202701568604
aF396.52593398094177
aF397.52985715866089
aF398.53296613693237
aF399.53669404983521
aF400.54061913490295
aF401.54453611373901
aF402.54846096038818
aF403.55238008499146
aF404.55649018287659
aF405.56012010574341
aF406.56414413452148
aF407.56740999221802
aF408.57099008560181
aF409.57490611076355
aF410.57882809638977
aF411.58274507522583
aF412.58684802055359
aF413.59030604362488
aF414.59451103210449
aF415.59843397140503
aF416.6023530960083
aF417.60627102851868
aF418.61019515991211
aF419.61411499977112
aF420.61805701255798
aF421.6209671497345
aF422.62417411804199
aF423.62779998779297
aF424.63172602653503
aF425.63564705848694
aF426.63956618309021
aF427.64275503158569
aF428.6465470790863
aF429.65032505989075
aF430.65425395965576
aF431.65816617012024
aF432.66208696365356
aF433.66602206230164
aF434.66992998123169
aF435.67385101318359
aF436.67706608772278
aF437.68069911003113
aF438.6838710308075
aF439.6875331401825
aF440.6914529800415
aF441.69537401199341
aF442.69930005073547
aF443.70322799682617
aF444.70713901519775
aF445.71106815338135
aF446.71498608589172
aF447.71890711784363
aF448.72239208221436
aF449.72508096694946
aF450.72866415977478
aF451.73206996917725
aF452.73550701141357
aF453.7388870716095
aF454.7423460483551
aF455.74626898765564
aF456.75019216537476
aF457.75408911705017
aF458.75803017616272
aF459.76195502281189
aF460.76590609550476
aF461.76979613304138
aF462.77371501922607
aF463.77763700485229
aF464.78157114982605
aF465.78547716140747
aF466.78940105438232
aF467.7933201789856
aF468.79724717140198
aF469.80116415023804
aF470.80508303642273
aF471.80816507339478
aF472.8119261264801
aF473.81585502624512
aF474.81977295875549
aF475.82369613647461
aF476.82760810852051
aF477.83153200149536
aF478.83545112609863
aF479.8393759727478
aF480.84329295158386
aF481.84721302986145
aF482.85113716125488
aF483.85505795478821
aF484.85864806175232
aF485.86290001869202
aF486.8668270111084
aF487.87074112892151
aF488.87466311454773
aF489.87858200073242
aF490.88212609291077
aF491.88642597198486
aF492.89034414291382
aF493.89426517486572
aF494.89818811416626
aF495.90114116668701
aF496.90497899055481
aF497.90896415710449
aF498.91287112236023
aF499.91678905487061
aF500.92071294784546
aF501.92463302612305
aF502.92855405807495
aF503.93248009681702
aF504.93639612197876
aF505.94031405448914
aF506.94423913955688
aF507.94815611839294
aF508.95208597183228
aF509.95567011833191
aF510.95992612838745
aF511.96384000778198
aF512.9677619934082
aF513.97168612480164
aF514.97560715675354
aF515.97932696342468
aF516.98344397544861
aF517.98734903335571
aF518.99128818511963
aF519.99521017074585
aF520.99913311004639
aF522.00305700302124
aF523.00697612762451
aF524.01022505760193
aF525.01381611824036
aF526.01773810386658
aF527.02165508270264
aF528.02557706832886
aF529.0295090675354
aF530.03342199325562
aF531.0373420715332
aF532.04126310348511
aF533.04534411430359
aF534.0491030216217
aF535.05305600166321
aF536.05695509910583
aF537.06086802482605
aF538.06436014175415
aF539.06770896911621
aF540.07162809371948
aF541.07555103302002
aF542.07947206497192
aF543.08339095115662
aF544.08811712265015
aF545.09224200248718
aF546.09615206718445
aF547.1000759601593
aF548.10399603843689
aF549.10791516304016
aF550.11183905601501
aF551.11575818061829
aF552.1190869808197
aF553.12253403663635
aF554.12652397155762
aF555.13044309616089
aF556.13437604904175
aF557.13828611373901
aF558.14220595359802
aF559.14612698554993
aF560.15006303787231
aF561.15397810935974
aF562.15702104568481
aF563.1608099937439
aF564.16427206993103
aF565.16765213012695
aF566.17158198356628
aF567.17549610137939
aF568.1794171333313
aF569.1833381652832
aF570.18725895881653
aF571.19117999076843
aF572.19510102272034
aF573.19902014732361
aF574.20294404029846
aF575.20686507225037
aF576.21078300476074
aF577.21470713615417
aF578.21863317489624
aF579.22254705429077
aF580.22646808624268
aF581.2303900718689
aF582.23351907730103
aF583.23723101615906
aF584.24114799499512
aF585.24507999420166
aF586.24899506568909
aF587.25291395187378
aF588.25683498382568
aF589.26078414916992
aF590.26499795913696
aF591.26859617233276
aF592.27251815795898
aF593.27644205093384
aF594.27999114990234
aF595.28428912162781
aF596.28821206092834
aF597.29212307929993
aF598.29513812065125
aF599.2989649772644
aF600.30288410186768
aF601.30681610107422
aF602.31072998046875
aF603.31464695930481
aF604.31857013702393
aF605.32249116897583
aF606.32641100883484
aF607.33034706115723
aF608.33408617973328
aF609.33817315101624
aF610.34209704399109
aF611.34602808952332
aF612.34896516799927
aF613.35285902023315
aF614.35678100585938
aF615.36069798469543
aF616.36462497711182
aF617.36854314804077
aF618.37246298789978
aF619.376384973526
aF620.37935495376587
aF621.38322615623474
aF622.38715100288391
aF623.39107418060303
aF624.39498901367188
aF625.39816498756409
aF626.40112400054932
aF627.4047520160675
aF628.40866994857788
aF629.41172814369202
aF630.41477799415588
aF631.41843605041504
aF632.42188096046448
aF633.42528009414673
aF634.42849111557007
aF635.43211913108826
aF636.43604016304016
aF637.43996000289917
aF638.44402599334717
aF639.44780707359314
aF640.45173215866089
aF641.4556450843811
aF642.45956707000732
aF643.46348810195923
aF644.46743702888489
aF645.4710099697113
aF646.47525000572205
aF647.47909903526306
aF648.48309111595154
aF649.48701310157776
aF650.49093794822693
aF651.49430894851685
aF652.49777698516846
aF653.50119209289551
aF654.50461912155151
aF655.50853800773621
aF656.51245713233948
aF657.51638007164001
aF658.52030515670776
aF659.52422499656677
aF660.52814817428589
aF661.53206706047058
aF662.53598403930664
aF663.53922009468079
aF664.54283118247986
aF665.54675102233887
aF666.55067896842957
aF667.55458903312683
aF668.55851101875305
aF669.56243205070496
aF670.56635499000549
aF671.57027316093445
aF672.57419514656067
aF673.57777309417725
aF674.58208298683167
aF675.58596801757812
aF676.58987712860107
aF677.59380006790161
aF678.59697508811951
aF679.60064601898193
aF680.60456109046936
aF681.60848212242126
aF682.61240816116333
aF683.61633205413818
aF684.62024998664856
aF685.6241660118103
aF686.628093957901
aF687.63200712203979
aF688.63514709472656
aF689.63885712623596
aF690.64277195930481
aF691.64609313011169
aF692.64961194992065
aF693.65353798866272
aF694.65745401382446
aF695.66138815879822
aF696.66520214080811
aF697.66924905776978
aF698.67295813560486
aF699.67703700065613
aF700.68098211288452
aF701.68484401702881
aF702.68882203102112
aF703.69274306297302
aF704.69654512405396
aF705.70058608055115
aF706.70451307296753
aF707.70842695236206
aF708.71234703063965
aF709.71627497673035
aF710.72018814086914
aF711.72411608695984
aF712.72803115844727
aF713.73195195198059
aF714.73587203025818
aF715.73967099189758
aF716.74352502822876
aF717.74763607978821
aF718.75156211853027
aF719.75452303886414
aF720.7584080696106
aF721.76232314109802
aF722.76624798774719
aF723.7702009677887
aF724.77408504486084
aF725.77801513671875
aF726.78192615509033
aF727.7858669757843
aF728.78977012634277
aF729.79368710517883
aF730.79760909080505
aF731.80153012275696
aF732.80544996261597
aF733.80903315544128
aF734.81329417228699
aF735.81721496582031
aF736.82113599777222
aF737.82505416870117
aF738.82897615432739
aF739.83289909362793
aF740.83682703971863
aF741.8407871723175
aF742.84466004371643
aF743.84858012199402
aF744.85250306129456
aF745.85617518424988
aF746.86034417152405
aF747.86426401138306
aF748.86818814277649
aF749.87210607528687
aF750.87602615356445
aF751.87995600700378
aF752.88387799263
aF753.88779211044312
aF754.8910071849823
aF755.89456295967102
aF756.89855694770813
aF757.90247702598572
aF758.90545415878296
aF759.90929198265076
aF760.913241147995
aF761.91684412956238
aF762.92108416557312
aF763.92500805854797
aF764.92856597900391
aF765.93284296989441
aF766.936763048172
aF767.94068503379822
aF768.94439506530762
aF769.94852709770203
aF770.95244717597961
aF771.95616006851196
aF772.96028804779053
aF773.96394610404968
aF774.96814012527466
aF775.97205901145935
aF776.97497415542603
aF777.97866010665894
aF778.98281502723694
aF779.98674011230469
aF780.99066710472107
aF781.99457907676697
aF782.99849915504456
aF784.00241994857788
aF785.006343126297
aF786.01026296615601
aF787.01418304443359
aF788.01810312271118
aF789.022047996521
aF790.02572417259216
aF791.02986717224121
aF792.03378915786743
aF793.03771901130676
aF794.04162812232971
aF795.04555010795593
aF796.04947400093079
aF797.05339097976685
aF798.05731415748596
aF799.06053805351257
aF800.06415605545044
aF801.06807613372803
aF802.07142615318298
aF803.07492113113403
aF804.07884407043457
aF805.082759141922
aF806.0866801738739
aF807.09060001373291
aF808.09452199935913
aF809.09844398498535
aF810.10181903839111
aF811.10528612136841
aF812.10837817192078
aF813.11167812347412
aF814.11508202552795
aF815.11897301673889
aF816.12288618087769
aF817.12681102752686
aF818.13073205947876
aF819.13409805297852
aF820.13758015632629
aF821.14149498939514
aF822.14541697502136
aF823.14933514595032
aF824.15325903892517
aF825.15718007087708
aF826.1611020565033
aF827.16501903533936
aF828.16894602775574
aF829.1728630065918
aF830.17678308486938
aF831.18070507049561
aF832.1846239566803
aF833.1885461807251
aF834.19246697425842
aF835.19638895988464
aF836.20030808448792
aF837.20423603057861
aF838.20815110206604
aF839.21206903457642
aF840.21510195732117
aF841.2189199924469
aF842.22284197807312
aF843.2267529964447
aF844.23067712783813
aF845.23459506034851
aF846.23851704597473
aF847.24247312545776
aF848.24636197090149
aF849.25028014183044
aF850.25420212745667
aF851.25812602043152
aF852.26205396652222
aF853.26597595214844
aF854.26989412307739
aF855.27385997772217
aF856.2889711856842
aF857.29210114479065
aF858.29557013511658
aF859.29948902130127
aF860.30241203308105
aF861.30637812614441
aF862.30984711647034
aF863.3131730556488
aF864.31709909439087
aF865.32102417945862
aF866.32494616508484
aF867.32853698730469
aF868.33277797698975
aF869.33669900894165
aF870.34062314033508
aF871.34418296813965
aF872.34761595726013
aF873.35142016410828
aF874.35530209541321
aF875.35922408103943
aF876.36314511299133
aF877.36707711219788
aF878.37099695205688
aF879.37493896484375
aF880.37883615493774
aF881.38282012939453
aF882.3864049911499
aF883.39059400558472
aF884.39452004432678
aF885.39795398712158
aF886.40096211433411
aF887.40427708625793
aF888.40819907188416
aF889.41212511062622
aF890.41506695747375
aF891.41896414756775
aF892.42288208007812
aF893.42680597305298
aF894.43072295188904
aF895.43464803695679
aF896.43856501579285
aF897.44248914718628
aF898.44640898704529
aF899.45033001899719
aF900.45425009727478
aF901.45817303657532
aF902.4621000289917
aF903.46602010726929
aF904.46995902061462
aF905.47385311126709
aF906.4777729511261
aF907.48170304298401
aF908.48561596870422
aF909.48954105377197
aF910.49346113204956
aF911.49737906455994
aF912.50130009651184
aF913.50523114204407
aF914.50918197631836
aF915.51306700706482
aF916.51699209213257
aF917.52090501785278
aF918.52482604980469
aF919.52874708175659
aF920.53184509277344
aF921.5356011390686
aF922.53954696655273
aF923.54232001304626
aF924.54635310173035
aF925.55014109611511
aF926.55420207977295
aF927.55811500549316
aF928.56204509735107
aF929.56595897674561
aF930.56987714767456
aF931.57380199432373
aF932.57771897315979
aF933.58163905143738
aF934.58556604385376
aF935.58948516845703
aF936.59340214729309
aF937.59657716751099
aF938.60024499893188
aF939.60417103767395
aF940.60812711715698
aF941.61148715019226
aF942.61493110656738
aF943.61885809898376
aF944.62196016311646
aF945.62569499015808
aF946.62961196899414
aF947.63353514671326
aF948.63745999336243
aF949.64137411117554
aF950.64529800415039
aF951.64921808242798
aF952.65314316749573
aF953.65706396102905
aF954.66098618507385
aF955.66490006446838
aF956.66882610321045
aF957.67274308204651
aF958.67666816711426
aF959.68058514595032
aF960.68451499938965
aF961.68842697143555
aF962.69234895706177
aF963.69626998901367
aF964.70018696784973
aF965.70411896705627
aF966.70803999900818
aF967.71196007728577
aF968.71587204933167
aF969.7197949886322
aF970.72371315956116
aF971.72764110565186
aF972.7315571308136
aF973.73547697067261
aF974.73940110206604
aF975.74333596229553
aF976.74726915359497
aF977.75116395950317
aF978.75444197654724
aF979.75801515579224
aF980.76197409629822
aF981.76584815979004
aF982.76894998550415
aF983.7720639705658
aF984.77561211585999
aF985.77952599525452
aF986.78272008895874
aF987.78636503219604
aF988.79029703140259
aF989.79421901702881
aF990.79813694953918
aF991.80219197273254
aF992.80598902702332
aF993.80989909172058
aF994.81382918357849
aF995.81774497032166
aF996.82166814804077
aF997.82558703422546
aF998.82950210571289
aF999.83342814445496
aF1000.8369581699371
aF1001.8402409553528
aF1002.8441851139069
aF1003.8481080532074
aF1004.8520290851593
aF1005.8559579849243
aF1006.8598711490631
aF1007.8623650074005
aF1008.8657140731812
aF1009.8696410655975
aF1010.8735551834106
aF1011.877475976944
aF1012.8814041614532
aF1013.8853220939636
aF1014.889240026474
aF1015.8931591510773
aF1016.8970789909363
aF1017.9010009765625
aF1018.9049210548401
aF1019.9088430404663
aF1020.9127650260925
aF1021.9166920185089
aF1022.9202289581299
aF1023.9245281219482
aF1024.9282550811768
aF1025.9323680400848
aF1026.9362909793854
aF1027.9402091503143
aF1028.9440090656281
aF1029.9480540752411
aF1030.9519701004028
aF1031.9558939933777
aF1032.9600720405579
aF1033.9637351036072
aF1034.9667489528656
aF1035.9705810546875
aF1036.9745221138
aF1037.9784231185913
aF1038.9823429584503
aF1039.9862651824951
aF1040.9901809692383
aF1041.9934661388397
aF1042.99702501297
aF1044.0009529590607
aF1045.0050189495087
aF1046.008730173111
aF1047.0127079486847
aF1048.0159780979156
aF1049.0195510387421
aF1050.0224750041962
aF1051.0263941287994
aF1052.0303180217743
aF1053.0342690944672
aF1054.0381610393524
aF1055.0420801639557
aF1056.0460071563721
aF1057.0499160289764
aF1058.053838968277
aF1059.0577590465546
aF1060.0616819858551
aF1061.065052986145
aF1062.0685231685638
aF1063.0724430084229
aF1064.0762851238251
aF1065.0802960395813
aF1066.0842070579529
aF1067.0881381034851
aF1068.0920550823212
aF1069.0959701538086
aF1070.0996820926666
aF1071.1030831336975
aF1072.1067390441895
aF1073.1106531620026
aF1074.1145761013031
aF1075.1184921264648
aF1076.1224141120911
aF1077.1263439655304
aF1078.1302630901337
aF1079.1341791152954
aF1080.1381001472473
aF1081.1420271396637
aF1082.1459391117096
aF1083.1498610973358
aF1084.1537880897522
aF1085.1572051048279
aF1086.1606261730194
aF1087.1645491123199
aF1088.1684730052948
aF1089.1723871231079
aF1090.1763081550598
aF1091.1802289485931
aF1092.1841549873352
aF1093.1880710124969
aF1094.1919980049133
aF1095.1959221363068
aF1096.199835062027
aF1097.2037551403046
aF1098.2070291042328
aF1099.2097949981689
aF1100.2135310173035
aF1101.2193901538849
aF1102.2233610153198
aF1103.227283000946
aF1104.231201171875
aF1105.2351231575012
aF1106.2390470504761
aF1107.2429671287537
aF1108.2468881607056
aF1109.2508080005646
aF1110.254340171814
aF1111.2576501369476
aF1112.2615699768066
aF1113.2654960155487
aF1114.2690160274506
aF1115.2723340988159
aF1116.2762520313263
aF1117.2801730632782
aF1118.2841019630432
aF1119.2871880531311
aF1120.2909390926361
aF1121.2948660850525
aF1122.2987561225891
aF1123.3027110099792
aF1124.3058221340179
aF1125.3095560073853
aF1126.313502073288
aF1127.3173840045929
aF1128.3207910060883
aF1129.3242270946503
aF1130.3281471729279
aF1131.3320701122284
aF1132.3359889984131
aF1133.3399150371552
aF1134.3428361415863
aF1135.3467559814453
aF1136.3506720066071
aF1137.3545961380005
aF1138.3585140705109
aF1139.3624370098114
aF1140.366357088089
aF1141.3702809810638
aF1142.3740711212158
aF1143.3781220912933
aF1144.3820559978485
aF1145.3859369754791
aF1146.3898839950562
aF1147.3930599689484
aF1148.39684009552
aF1149.4006481170654
aF1150.4045720100403
aF1151.4084889888763
aF1152.4118630886078
aF1153.4153280258179
aF1154.4192531108856
aF1155.4231510162354
aF1156.4270980358124
aF1157.4310131072998
aF1158.4349331855774
aF1159.4388539791107
aF1160.4427750110626
aF1161.4467000961304
aF1162.4506280422211
aF1163.4545381069183
aF1164.4584591388702
aF1165.4623801708221
aF1166.4663021564484
aF1167.4702241420746
aF1168.4741430282593
aF1169.4780740737915
aF1170.4819941520691
aF1171.4859051704407
aF1172.4898080825806
aF1173.4937491416931
aF1174.4976720809937
aF1175.5015881061554
aF1176.5055119991302
aF1177.5094311237335
aF1178.5133521556854
aF1179.5166130065918
aF1180.5201971530914
aF1181.5241131782532
aF1182.5280339717865
aF1183.5319559574127
aF1184.5358791351318
aF1185.5398170948029
aF1186.5437190532684
aF1187.5476400852203
aF1188.5515670776367
aF1189.5551631450653
aF1190.5594170093536
aF1191.5633261203766
aF1192.5672521591187
aF1193.5711669921875
aF1194.5742030143738
aF1195.5780200958252
aF1196.5819351673126
aF1197.5858500003815
aF1198.5897700786591
aF1199.5936920642853
aF1200.597442150116
aF1201.601536989212
aF1202.6054620742798
aF1203.6093759536743
aF1204.6132960319519
aF1205.617222070694
aF1206.6209681034088
aF1207.6250600814819
aF1208.6289801597595
aF1209.6329021453857
aF1210.6368219852448
aF1211.6407430171967
aF1212.6446621417999
aF1213.648588180542
aF1214.6525349617004
aF1215.6564271450043
aF1216.659873008728
aF1217.6632709503174
aF1218.6671991348267
aF1219.6711120605469
aF1220.6750330924988
aF1221.678955078125
aF1222.6828801631927
aF1223.6867990493774
aF1224.6907210350037
aF1225.6946551799774
aF1226.6984040737152
aF1227.7024819850922
aF1228.7064061164856
aF1229.710324048996
aF1230.7142450809479
aF1231.7181770801544
aF1232.7220849990845
aF1233.7260131835938
aF1234.7289931774139
aF1235.732223033905
aF1236.734845161438
aF1237.7386901378632
aF1238.7426090240479
aF1239.7465310096741
aF1240.7504551410675
aF1241.7543730735779
aF1242.758327960968
aF1243.7622120380402
aF1244.7661371231079
aF1245.7700650691986
aF1246.7739911079407
aF1247.7777571678162
aF1248.7811620235443
aF1249.7847399711609
aF1250.7886600494385
aF1251.7925860881805
aF1252.7965049743652
aF1253.8004310131073
aF1254.8041241168976
aF1255.8082699775696
aF1256.8121891021729
aF1257.8161129951477
aF1258.8198201656342
aF1259.8239500522614
aF1260.8278751373291
aF1261.8317911624908
aF1262.8357110023499
aF1263.8396360874176
aF1264.8432950973511
aF1265.8474760055542
aF1266.8513979911804
aF1267.8553190231323
aF1268.8592381477356
aF1269.8625521659851
aF1270.8660819530487
aF1271.8700110912323
aF1272.8739280700684
aF1273.8778431415558
aF1274.8817641735077
aF1275.8856890201569
aF1276.8896050453186
aF1277.8929750919342
aF1278.8962280750275
aF1279.900367975235
aF1280.9042880535126
aF1281.908212184906
aF1282.9113659858704
aF1283.915057182312
aF1284.9189741611481
aF1285.9228930473328
aF1286.9268260002136
aF1287.9307470321655
aF1288.9346590042114
aF1289.9385821819305
aF1290.9415621757507
aF1291.9454619884491
aF1292.9492371082306
aF1293.953262090683
aF1294.9571871757507
aF1295.9611270427704
aF1296.9648931026459
aF1297.9689581394196
aF1298.9728701114655
aF1299.9766001701355
aF1300.9807140827179
aF1301.9846301078796
aF1302.98854804039
aF1303.9917051792145
aF1304.9953961372375
aF1305.9990320205688
aF1307.0032351016998
aF1308.0071561336517
aF1309.0110790729523
aF1310.0152680873871
aF1311.0189170837402
aF1312.0228409767151
aF1313.0267601013184
aF1314.0306811332703
aF1315.034609079361
aF1316.0377621650696
aF1317.0414440631866
aF1318.0453720092773
aF1319.0492889881134
aF1320.0532081127167
aF1321.0571551322937
aF1322.0610501766205
aF1323.0649709701538
aF1324.0688970088959
aF1325.0728130340576
aF1326.0767331123352
aF1327.0799579620361
aF1328.083575963974
aF1329.087494134903
aF1330.0914180278778
aF1331.0953371524811
aF1332.0992650985718
aF1333.1031789779663
aF1334.1070990562439
aF1335.1110191345215
aF1336.114942073822
aF1337.1180601119995
aF1338.1217820644379
aF1339.1251339912415
aF1340.128632068634
aF1341.1317250728607
aF1342.1354730129242
aF1343.1393871307373
aF1344.1433110237122
aF1345.147253036499
aF1346.151153087616
aF1347.1546440124512
aF1348.158007144928
aF1349.161915063858
aF1350.1653311252594
aF1351.167876958847
aF1352.171676158905
aF1353.1755950450897
aF1354.1795251369476
aF1355.1834390163422
aF1356.1873600482941
aF1357.1912820339203
aF1358.1952130794525
aF1359.1991231441498
aF1360.203047990799
aF1361.2070050239563
aF1362.2108881473541
aF1363.2148101329803
aF1364.218729019165
aF1365.2226519584656
aF1366.2265720367432
aF1367.2304921150208
aF1368.2344119548798
aF1369.2383341789246
aF1370.2422549724579
aF1371.2461760044098
aF1372.2501010894775
aF1373.2540290355682
aF1374.2569830417633
aF1375.260861158371
aF1376.264778137207
aF1377.2687020301819
aF1378.2722280025482
aF1379.2755441665649
aF1380.2794671058655
aF1381.2833890914917
aF1382.2866539955139
aF1383.2902281284332
aF1384.2941479682922
aF1385.2980699539185
aF1386.302011013031
aF1387.3059120178223
aF1388.3096680641174
aF1389.3137540817261
aF1390.3176720142365
aF1391.3215980529785
aF1392.3255150318146
aF1393.3289639949799
aF1394.3323571681976
aF1395.3362829685211
aF1396.3401980400085
aF1397.3441200256348
aF1398.3472981452942
aF1399.3509621620178
aF1400.3548829555511
aF1401.3588039875031
aF1402.362725019455
aF1403.3666541576385
aF1404.3705680370331
aF1405.374489068985
aF1406.3779909610748
aF1407.3813300132751
aF1408.3852570056915
aF1409.389172077179
aF1410.3930900096893
aF1411.3967981338501
aF1412.4009351730347
aF1413.4048540592194
aF1414.4079921245575
aF1415.411698102951
aF1416.4156181812286
aF1417.4195380210876
aF1418.4234631061554
aF1419.427383184433
aF1420.4313011169434
aF1421.4348111152649
aF1422.4381461143494
aF1423.4420750141144
aF1424.4460179805756
aF1425.4499480724335
aF1426.4538259506226
aF1427.4574639797211
aF1428.4616689682007
aF1429.4655959606171
aF1430.469514131546
aF1431.4734330177307
aF1432.4773550033569
aF1433.4812800884247
aF1434.4848001003265
aF1435.488116979599
aF1436.4917199611664
aF1437.4959599971771
aF1438.4999029636383
aF1439.5037989616394
aF1440.5077199935913
aF1441.5115849971771
aF1442.5155720710754
aF1443.5194840431213
aF1444.5234060287476
aF1445.5273261070251
aF1446.5312540531158
aF1447.535168170929
aF1448.539088010788
aF1449.5430121421814
aF1450.5466771125793
aF1451.5508530139923
aF1452.5547840595245
aF1453.5586941242218
aF1454.5626151561737
aF1455.5665390491486
aF1456.5704581737518
aF1457.5743751525879
aF1458.5782999992371
aF1459.5822410583496
aF1460.5862321853638
aF1461.590075969696
aF1462.593994140625
aF1463.5979030132294
aF1464.6018249988556
aF1465.6048030853271
aF1466.6086661815643
aF1467.612585067749
aF1468.6165070533752
aF1469.6204271316528
aF1470.6243500709534
aF1471.6282770633698
aF1472.6321959495544
aF1473.6361131668091
aF1474.6400351524353
aF1475.6439599990845
aF1476.6478760242462
aF1477.6518039703369
aF1478.6550331115723
aF1479.6586401462555
aF1480.6627731323242
aF1481.6664769649506
aF1482.6704320907593
aF1483.6743249893188
aF1484.6782510280609
aF1485.6821441650391
aF1486.6860890388489
aF1487.6897940635681
aF1488.6929650306702
aF1489.6968469619751
aF1490.7004001140594
aF1491.7046911716461
aF1492.7086141109467
aF1493.7125339508057
aF1494.7164530754089
aF1495.7203750610352
aF1496.7242980003357
aF1497.7282161712646
aF1498.7321350574493
aF1499.7360560894012
aF1500.7399780750275
aF1501.7439031600952
aF1502.747819185257
aF1503.7517411708832
aF1504.7556641101837
aF1505.759397983551
aF1506.7635049819946
aF1507.7674250602722
aF1508.7713451385498
aF1509.775416135788
aF1510.7782580852509
aF1511.7818789482117
aF1512.7851049900055
aF1513.7889540195465
aF1514.7929730415344
aF1515.7967960834503
aF1516.8007111549377
aF1517.804633140564
aF1518.808559179306
aF1519.8124771118164
aF1520.8164260387421
aF1521.8209700584412
aF1522.8252620697021
aF1523.8291680812836
aF1524.833083152771
aF1525.8370101451874
aF1526.8409361839294
aF1527.844838142395
aF1528.84876704216
aF1529.8526890277863
aF1530.8566081523895
aF1531.8605279922485
aF1532.8644480705261
aF1533.868371963501
aF1534.8722910881042
aF1535.8762149810791
aF1536.880136013031
aF1537.8840551376343
aF1538.8879730701447
aF1539.8918941020966
aF1540.8958201408386
aF1541.8997399806976
aF1542.9031929969788
aF1543.9065871238708
aF1544.9105041027069
aF1545.914430141449
aF1546.9183921813965
aF1547.922266960144
aF1548.9261870384216
aF1549.9301080703735
aF1550.9340431690216
aF1551.9377219676971
aF1552.9418730735779
aF1553.9457910060883
aF1554.9497101306915
aF1555.953418970108
aF1556.9575519561768
aF1557.960963010788
aF1558.9643931388855
aF1559.9683401584625
aF1560.9722609519958
aF1561.976166009903
aF1562.9800841808319
aF1563.9840080738068
aF1564.9879240989685
aF1565.9918410778046
aF1566.9957649707794
aF1567.9996771812439
aF1569.0036001205444
aF1570.0075371265411
aF1571.011440038681
aF1572.0153601169586
aF1573.0192849636078
aF1574.0232059955597
aF1575.0271260738373
aF1576.0304341316223
aF1577.0339801311493
aF1578.037889957428
aF1579.0418121814728
aF1580.045734167099
aF1581.0496621131897
aF1582.0535771846771
aF1583.0574951171875
aF1584.0614540576935
aF1585.0653309822083
aF1586.0691030025482
aF1587.0731730461121
aF1588.0770909786224
aF1589.0810151100159
aF1590.0849339962006
aF1591.0888659954071
aF1592.0927829742432
aF1593.0967061519623
aF1594.1006271839142
aF1595.1045470237732
aF1596.1084680557251
aF1597.1113910675049
aF1598.1153240203857
aF1599.1192300319672
aF1600.1231491565704
aF1601.1270749568939
aF1602.130998134613
aF1603.1349301338196
aF1604.1385900974274
aF1605.1427540779114
aF1606.1466820240021
aF1607.1506040096283
aF1608.1545531749725
aF1609.1584479808807
aF1610.1623680591583
aF1611.1662549972534
aF1612.1739711761475
aF1613.1780381202698
aF1614.1820721626282
aF1615.1860070228577
aF1616.189836025238
aF1617.1938140392303
aF1618.1977381706238
aF1619.2016489505768
aF1620.2052049636841
aF1621.209527015686
aF1622.2134890556335
aF1623.2173311710358
aF1624.2212519645691
aF1625.2252039909363
aF1626.2290439605713
aF1627.2330160140991
aF1628.2369301319122
aF1629.2408490180969
aF1630.2443561553955
aF1631.2477061748505
aF1632.2516160011292
aF1633.2555360794067
aF1634.2594540119171
aF1635.2633781433105
aF1636.2673070430756
aF1637.271222114563
aF1638.2742919921875
aF1639.2780711650848
aF1640.2820019721985
aF1641.2859160900116
aF1642.288959980011
aF1643.2927191257477
aF1644.2968800067902
aF1645.3000211715698
aF1646.3035221099854
aF1647.3074650764465
aF1648.3113629817963
aF1649.315279006958
aF1650.3191990852356
aF1651.3231320381165
aF1652.3270921707153
aF1653.3309559822083
aF1654.33487200737
aF1655.3387351036072
aF1656.3427250385284
aF1657.3466551303864
aF1658.3505661487579
aF1659.3554220199585
aF1660.3588440418243
aF1661.3623340129852
aF1662.3662841320038
aF1663.3701801300049
aF1664.3740980625153
aF1665.3780219554901
aF1666.3809659481049
aF1667.3848631381989
aF1668.3887791633606
aF1669.3927030563354
aF1670.396623134613
aF1671.4005391597748
aF1672.4044589996338
aF1673.40838098526
aF1674.412299156189
aF1675.4156901836395
aF1676.4191501140594
aF1677.4230670928955
aF1678.4269831180573
aF1679.4309129714966
aF1680.4348361492157
aF1681.4387521743774
aF1682.4426670074463
aF1683.446592092514
aF1684.4505081176758
aF1685.4541499614716
aF1686.458368062973
aF1687.4621980190277
aF1688.466197013855
aF1689.4701120853424
aF1690.4740540981293
aF1691.4779670238495
aF1692.4818871021271
aF1693.4858021736145
aF1694.4897201061249
aF1695.4936420917511
aF1696.4969990253448
aF1697.500550031662
aF1698.5044031143188
aF1699.5083220005035
aF1700.5122439861298
aF1701.516163110733
aF1702.5200841426849
aF1703.5240111351013
aF1704.5279250144958
aF1705.5318431854248
aF1706.5357670783997
aF1707.5396859645844
aF1708.5436170101166
aF1709.547544002533
aF1710.5514719486237
aF1711.5553729534149
aF1712.5592930316925
aF1713.5632131099701
aF1714.5671379566193
aF1715.5710611343384
aF1716.5749771595001
aF1717.5789000988007
aF1718.5828261375427
aF1719.5867459774017
aF1720.5906691551208
aF1721.5945949554443
aF1722.5981020927429
aF1723.6014170646667
aF1724.6053409576416
aF1725.6092870235443
aF1726.6132371425629
aF1727.6169610023499
aF1728.6209700107574
aF1729.6249601840973
aF1730.6288859844208
aF1731.6328110694885
aF1732.6365060806274
aF1733.6404070854187
aF1734.6445591449738
aF1735.6474900245667
aF1736.6514019966125
aF1737.6545360088348
aF1738.6582479476929
aF1739.6621661186218
aF1740.6660780906677
aF1741.6700689792633
aF1742.6739251613617
aF1743.6778471469879
aF1744.6817700862885
aF1745.6856870651245
aF1746.6889729499817
aF1747.6925411224365
aF1748.6964650154114
aF1749.70037317276
aF1750.7042911052704
aF1751.7082130908966
aF1752.7121331691742
aF1753.7160580158234
aF1754.7199831008911
aF1755.7239410877228
aF1756.7278170585632
aF1757.7317321300507
aF1758.7356531620026
aF1759.7395730018616
aF1760.7434921264648
aF1761.7473039627075
aF1762.7513461112976
aF1763.7552599906921
aF1764.7591819763184
aF1765.7631051540375
aF1766.7670271396637
aF1767.7709450721741
aF1768.7748670578003
aF1769.778783082962
aF1770.7827041149139
aF1771.7866280078888
aF1772.7905461788177
aF1773.7944650650024
aF1774.7983961105347
aF1775.8023171424866
aF1776.8062319755554
aF1777.8101680278778
aF1778.8140850067139
aF1779.8180100917816
aF1780.821918964386
aF1781.8249640464783
aF1782.8287601470947
aF1783.8326880931854
aF1784.83660197258
aF1785.8405141830444
aF1786.8444390296936
aF1787.848356962204
aF1788.8522760868073
aF1789.856201171875
aF1790.8601169586182
aF1791.8640379905701
aF1792.8679661750793
aF1793.8718950748444
aF1794.8758170604706
aF1795.8797550201416
aF1796.8836550712585
aF1797.8875761032104
aF1798.8914971351624
aF1799.8954150676727
aF1800.8993360996246
aF1801.903265953064
aF1802.9071891307831
aF1803.9111070632935
aF1804.9150240421295
aF1805.9189469814301
aF1806.9221041202545
aF1807.9257950782776
aF1808.9289691448212
aF1809.9326491355896
aF1810.9365501403809
aF1811.9404830932617
aF1812.944442987442
aF1813.9483091831207
aF1814.9522471427917
aF1815.9561779499054
aF1816.9600970745087
aF1817.964024066925
aF1818.9682149887085
aF1819.9718589782715
aF1820.9757981300354
aF1821.9797041416168
aF1822.9836311340332
aF1823.98752617836
aF1824.9914500713348
aF1825.9953689575195
aF1826.9992861747742
aF1828.0022361278534
aF1829.0061440467834
aF1830.010085105896
aF1831.0139939785004
aF1832.0169670581818
aF1833.0208311080933
aF1834.0247490406036
aF1835.0289649963379
aF1836.0326170921326
aF1837.0364980697632
aF1838.0404181480408
aF1839.044340133667
aF1840.0482771396637
aF1841.0521919727325
aF1842.0561211109161
aF1843.0600409507751
aF1844.0640170574188
aF1845.0678839683533
aF1846.0718059539795
aF1847.0757391452789
aF1848.079647064209
aF1849.0835521221161
aF1850.0874781608582
aF1851.0913910865784
aF1852.0953161716461
aF1853.0992460250854
aF1854.1031589508057
aF1855.1070981025696
aF1856.1110141277313
aF1857.1149370670319
aF1858.1188559532166
aF1859.1227781772614
aF1860.1267001628876
aF1861.1306209564209
aF1862.1345231533051
aF1863.138444185257
aF1864.1423721313477
aF1865.1462950706482
aF1866.1502130031586
aF1867.1549611091614
aF1868.1590311527252
aF1869.1629781723022
aF1870.1669011116028
aF1871.170823097229
aF1872.1747419834137
aF1873.1786651611328
aF1874.1825740337372
aF1875.1866681575775
aF1876.1904180049896
aF1877.1943371295929
aF1878.1982560157776
aF1879.2021951675415
aF1880.2061100006104
aF1881.2100450992584
aF1882.212965965271
aF1883.2169010639191
aF1884.2207961082458
aF1885.2247121334076
aF1886.2286360263824
aF1887.2336270809174
aF1888.2374720573425
aF1889.2413880825043
aF1890.2453551292419
aF1891.2489671707153
aF1892.2529649734497
aF1893.2570240497589
aF1894.2609651088715
aF1895.2649331092834
aF1896.2688460350037
aF1897.272763967514
aF1898.2766880989075
aF1899.2805941104889
aF1900.2845189571381
aF1901.2884361743927
aF1902.2923581600189
aF1903.2962779998779
aF1904.3002030849457
aF1905.3041269779205
aF1906.3080489635468
aF1907.3119730949402
aF1908.3158950805664
aF1909.3198201656342
aF1910.3237380981445
aF1911.3270990848541
aF1912.3305740356445
aF1913.3344900608063
aF1914.338415145874
aF1915.3423631191254
aF1916.346253156662
aF1917.3501720428467
aF1918.3541221618652
aF1919.3580391407013
aF1920.3609640598297
aF1921.3648719787598
aF1922.3687970638275
aF1923.3727250099182
aF1924.3766219615936
aF1925.3805551528931
aF1926.3844809532166
aF1927.3883819580078
aF1928.3923051357269
aF1929.3962261676788
aF1930.4001460075378
aF1931.4040651321411
aF1932.4070861339569
aF1933.4104959964752
aF1934.4129719734192
aF1935.4167611598969
aF1936.4206840991974
aF1937.4246029853821
aF1938.4285221099854
aF1939.4324200153351
aF1940.4363961219788
aF1941.4402770996094
aF1942.4441950321198
aF1943.448961019516
aF1944.4530889987946
aF1945.4569661617279
aF1946.4609000682831
aF1947.4648129940033
aF1948.4687330722809
aF1949.4726541042328
aF1950.4765300750732
aF1951.4805109500885
aF1952.4844169616699
aF1953.4873449802399
aF1954.4912919998169
aF1955.4952580928802
aF1956.4990930557251
aF1957.5030131340027
aF1958.5069360733032
aF1959.5108690261841
aF1960.5147860050201
aF1961.5187041759491
aF1962.5226261615753
aF1963.5265560150146
aF1964.5304691791534
aF1965.5343821048737
aF1966.5383241176605
aF1967.5422310829163
aF1968.5461449623108
aF1969.5501041412354
aF1970.5539951324463
aF1971.5579149723053
aF1972.5609650611877
aF1973.5647621154785
aF1974.5676820278168
aF1975.5716049671173
aF1976.5755231380463
aF1977.5794470310211
aF1978.5833661556244
aF1979.5873119831085
aF1980.5920281410217
aF1981.5961191654205
aF1982.60005402565
aF1983.6039621829987
aF1984.6078770160675
aF1985.6118080615997
aF1986.6157400608063
aF1987.6196410655975
aF1988.6235811710358
aF1989.6274871826172
aF1990.631441116333
aF1991.6353821754456
aF1992.6392860412598
aF1993.6431930065155
aF1994.6470861434937
aF1995.6510190963745
aF1996.6549310684204
aF1997.658851146698
aF1998.6627850532532
aF1999.6667060852051
aF2000.6706240177155
aF2001.6745419502258
aF2002.6784679889679
aF2003.6823840141296
aF2004.6863141059875
aF2005.6902270317078
aF2006.6941421031952
aF2007.6980690956116
aF2008.7019891738892
aF2009.7059049606323
aF2010.7089719772339
aF2011.713564157486
aF2012.7169630527496
aF2013.7205929756165
aF2014.7245011329651
aF2015.7284240722656
aF2016.732342004776
aF2017.7362689971924
aF2018.7401859760284
aF2019.7441251277924
aF2020.7480211257935
aF2021.7519471645355
aF2022.7558679580688
aF2023.7596960067749
aF2024.7637121677399
aF2025.7676310539246
aF2026.7715489864349
aF2027.7754759788513
aF2028.7793900966644
aF2029.783310174942
aF2030.7864701747894
aF2031.7901511192322
aF2032.7940680980682
aF2033.7980041503906
aF2034.80095911026
aF2035.8045551776886
aF2036.8087530136108
aF2037.8126711845398
aF2038.8166031837463
aF2039.8205020427704
aF2040.8244471549988
aF2041.828369140625
aF2042.8322870731354
aF2043.836207151413
aF2044.8401391506195
aF2045.844043970108
aF2046.8479580879211
aF2047.8518850803375
aF2048.8558061122894
aF2049.8597331047058
aF2050.863657951355
aF2051.8675789833069
aF2052.8714880943298
aF2053.8754091262817
aF2054.8793320655823
aF2055.883073091507
aF2056.8872289657593
aF2057.8911051750183
aF2058.8950290679932
aF2059.8989450931549
aF2060.9023160934448
aF2061.9057929515839
aF2062.9097061157227
aF2063.9136271476746
aF2064.9175519943237
aF2065.9204840660095
aF2066.9243941307068
aF2067.9283130168915
aF2068.9322321414948
aF2069.9361600875854
aF2070.9401021003723
aF2071.9439940452576
aF2072.947921037674
aF2073.9515070915222
aF2074.9557571411133
aF2075.9596781730652
aF2076.9637150764465
aF2077.9675209522247
aF2078.9714469909668
aF2079.9753620624542
aF2080.9796860218048
aF2081.9832100868225
aF2082.987123966217
aF2083.9910571575165
aF2084.9949779510498
aF2085.9988901615143
aF2087.0028109550476
aF2088.0067360401154
aF2089.0106520652771
aF2090.0145721435547
aF2091.0184960365295
aF2092.0224130153656
aF2093.0263340473175
aF2094.0302581787109
aF2095.0341780185699
aF2096.0381271839142
aF2097.0420351028442
aF2098.0459411144257
aF2099.0498600006104
aF2100.0537819862366
asS'ctl_val'
p6
F191.25
sS't_stop'
p7
F2100
sS'pwm_period'
p8
F0.5
sS't_on'
p9
F100
sS'dt'
p10
F1
sS'ctl_list'
p11
(lp12
F0
aF0
aF0
aF0
aF0
aF0
aF0
aF0
aF0
aF0
aF0
aF0
aF0
aF0
aF0
aF0
aF0
aF0
aF0
aF0
aF0
aF0
aF0
aF0
aF0
aF0
aF0
aF0
aF0
aF0
aF0
aF0
aF0
aF0
aF0
aF0
aF0
aF0
aF0
aF0
aF0
aF0
aF0
aF0
aF0
aF0
aF0
aF0
aF0
aF0
aF0
aF0
aF0
aF0
aF0
aF0
aF0
aF0
aF0
aF0
aF0
aF0
aF0
aF0
aF0
aF0
aF0
aF0
aF0
aF0
aF0
aF0
aF0
aF0
aF0
aF0
aF0
aF0
aF0
aF0
aF0
aF0
aF0
aF0
aF0
aF0
aF0
aF0
aF0
aF0
aF0
aF0
aF0
aF0
aF0
aF0
aF0
aF0
aF0
aF0
aF0
aF191.25
aF191.25
aF191.25
aF191.25
aF191.25
aF191.25
aF191.25
aF191.25
aF191.25
aF191.25
aF191.25
aF191.25
aF191.25
aF191.25
aF191.25
aF191.25
aF191.25
aF191.25
aF191.25
aF191.25
aF191.25
aF191.25
aF191.25
aF191.25
aF191.25
aF191.25
aF191.25
aF191.25
aF191.25
aF191.25
aF191.25
aF191.25
aF191.25
aF191.25
aF191.25
aF191.25
aF191.25
aF191.25
aF191.25
aF191.25
aF191.25
aF191.25
aF191.25
aF191.25
aF191.25
aF191.25
aF191.25
aF191.25
aF191.25
aF191.25
aF191.25
aF191.25
aF191.25
aF191.25
aF191.25
aF191.25
aF191.25
aF191.25
aF191.25
aF191.25
aF191.25
aF191.25
aF191.25
aF191.25
aF191.25
aF191.25
aF191.25
aF191.25
aF191.25
aF191.25
aF191.25
aF191.25
aF191.25
aF191.25
aF191.25
aF191.25
aF191.25
aF191.25
aF191.25
aF191.25
aF191.25
aF191.25
aF191.25
aF191.25
aF191.25
aF191.25
aF191.25
aF191.25
aF191.25
aF191.25
aF191.25
aF191.25
aF191.25
aF191.25
aF191.25
aF191.25
aF191.25
aF191.25
aF191.25
aF191.25
aF191.25
aF191.25
aF191.25
aF191.25
aF191.25
aF191.25
aF191.25
aF191.25
aF191.25
aF191.25
aF191.25
aF191.25
aF191.25
aF191.25
aF191.25
aF191.25
aF191.25
aF191.25
aF191.25
aF191.25
aF191.25
aF191.25
aF191.25
aF191.25
aF191.25
aF191.25
aF191.25
aF191.25
aF191.25
aF191.25
aF191.25
aF191.25
aF191.25
aF191.25
aF191.25
aF191.25
aF191.25
aF191.25
aF191.25
aF191.25
aF191.25
aF191.25
aF191.25
aF191.25
aF191.25
aF191.25
aF191.25
aF191.25
aF191.25
aF191.25
aF191.25
aF191.25
aF191.25
aF191.25
aF191.25
aF191.25
aF191.25
aF191.25
aF191.25
aF191.25
aF191.25
aF191.25
aF191.25
aF191.25
aF191.25
aF191.25
aF191.25
aF191.25
aF191.25
aF191.25
aF191.25
aF191.25
aF191.25
aF191.25
aF191.25
aF191.25
aF191.25
aF191.25
aF191.25
aF191.25
aF191.25
aF191.25
aF191.25
aF191.25
aF191.25
aF191.25
aF191.25
aF191.25
aF191.25
aF191.25
aF191.25
aF191.25
aF191.25
aF191.25
aF191.25
aF191.25
aF191.25
aF191.25
aF191.25
aF191.25
aF191.25
aF191.25
aF191.25
aF191.25
aF191.25
aF191.25
aF191.25
aF191.25
aF191.25
aF191.25
aF191.25
aF191.25
aF191.25
aF191.25
aF191.25
aF191.25
aF191.25
aF191.25
aF191.25
aF191.25
aF191.25
aF191.25
aF191.25
aF191.25
aF191.25
aF191.25
aF191.25
aF191.25
aF191.25
aF191.25
aF191.25
aF191.25
aF191.25
aF191.25
aF191.25
aF191.25
aF191.25
aF191.25
aF191.25
aF191.25
aF191.25
aF191.25
aF191.25
aF191.25
aF191.25
aF191.25
aF191.25
aF191.25
aF191.25
aF191.25
aF191.25
aF191.25
aF191.25
aF191.25
aF191.25
aF191.25
aF191.25
aF191.25
aF191.25
aF191.25
aF191.25
aF191.25
aF191.25
aF191.25
aF191.25
aF191.25
aF191.25
aF191.25
aF191.25
aF191.25
aF191.25
aF191.25
aF191.25
aF191.25
aF191.25
aF191.25
aF191.25
aF191.25
aF191.25
aF191.25
aF191.25
aF191.25
aF191.25
aF191.25
aF191.25
aF191.25
aF191.25
aF191.25
aF191.25
aF191.25
aF191.25
aF191.25
aF191.25
aF191.25
aF191.25
aF191.25
aF191.25
aF191.25
aF191.25
aF191.25
aF191.25
aF191.25
aF191.25
aF191.25
aF191.25
aF191.25
aF191.25
aF191.25
aF191.25
aF191.25
aF191.25
aF191.25
aF191.25
aF191.25
aF191.25
aF191.25
aF191.25
aF191.25
aF191.25
aF191.25
aF191.25
aF191.25
aF191.25
aF191.25
aF191.25
aF191.25
aF191.25
aF191.25
aF191.25
aF191.25
aF191.25
aF191.25
aF191.25
aF191.25
aF191.25
aF191.25
aF191.25
aF191.25
aF191.25
aF191.25
aF191.25
aF191.25
aF191.25
aF191.25
aF191.25
aF191.25
aF191.25
aF191.25
aF191.25
aF191.25
aF191.25
aF191.25
aF191.25
aF191.25
aF191.25
aF191.25
aF191.25
aF191.25
aF191.25
aF191.25
aF191.25
aF191.25
aF191.25
aF191.25
aF191.25
aF191.25
aF191.25
aF191.25
aF191.25
aF191.25
aF191.25
aF191.25
aF191.25
aF191.25
aF191.25
aF191.25
aF191.25
aF191.25
aF191.25
aF191.25
aF191.25
aF191.25
aF191.25
aF191.25
aF191.25
aF191.25
aF191.25
aF191.25
aF191.25
aF191.25
aF191.25
aF191.25
aF191.25
aF191.25
aF191.25
aF191.25
aF191.25
aF191.25
aF191.25
aF191.25
aF191.25
aF191.25
aF191.25
aF191.25
aF191.25
aF191.25
aF191.25
aF191.25
aF191.25
aF191.25
aF191.25
aF191.25
aF191.25
aF191.25
aF191.25
aF191.25
aF191.25
aF191.25
aF191.25
aF191.25
aF191.25
aF191.25
aF191.25
aF191.25
aF191.25
aF191.25
aF191.25
aF191.25
aF191.25
aF191.25
aF191.25
aF191.25
aF191.25
aF191.25
aF191.25
aF191.25
aF191.25
aF191.25
aF191.25
aF191.25
aF191.25
aF191.25
aF191.25
aF191.25
aF191.25
aF191.25
aF191.25
aF191.25
aF191.25
aF191.25
aF191.25
aF191.25
aF191.25
aF191.25
aF191.25
aF191.25
aF191.25
aF191.25
aF191.25
aF191.25
aF191.25
aF191.25
aF191.25
aF191.25
aF191.25
aF191.25
aF191.25
aF191.25
aF191.25
aF191.25
aF191.25
aF191.25
aF191.25
aF191.25
aF191.25
aF191.25
aF191.25
aF191.25
aF191.25
aF191.25
aF191.25
aF191.25
aF191.25
aF191.25
aF191.25
aF191.25
aF191.25
aF191.25
aF191.25
aF191.25
aF191.25
aF191.25
aF191.25
aF191.25
aF191.25
aF191.25
aF191.25
aF191.25
aF191.25
aF191.25
aF191.25
aF191.25
aF191.25
aF191.25
aF191.25
aF191.25
aF191.25
aF191.25
aF191.25
aF191.25
aF191.25
aF191.25
aF191.25
aF191.25
aF191.25
aF191.25
aF191.25
aF191.25
aF191.25
aF191.25
aF191.25
aF191.25
aF191.25
aF191.25
aF191.25
aF191.25
aF191.25
aF191.25
aF191.25
aF191.25
aF191.25
aF191.25
aF191.25
aF191.25
aF191.25
aF191.25
aF191.25
aF191.25
aF191.25
aF191.25
aF191.25
aF191.25
aF191.25
aF191.25
aF191.25
aF191.25
aF191.25
aF191.25
aF191.25
aF191.25
aF191.25
aF191.25
aF191.25
aF191.25
aF191.25
aF191.25
aF191.25
aF191.25
aF191.25
aF191.25
aF191.25
aF191.25
aF191.25
aF191.25
aF191.25
aF191.25
aF191.25
aF191.25
aF191.25
aF191.25
aF191.25
aF191.25
aF191.25
aF191.25
aF191.25
aF191.25
aF191.25
aF191.25
aF191.25
aF191.25
aF191.25
aF191.25
aF191.25
aF191.25
aF191.25
aF191.25
aF191.25
aF191.25
aF191.25
aF191.25
aF191.25
aF191.25
aF191.25
aF191.25
aF191.25
aF191.25
aF191.25
aF191.25
aF191.25
aF191.25
aF191.25
aF191.25
aF191.25
aF191.25
aF191.25
aF191.25
aF191.25
aF191.25
aF191.25
aF191.25
aF191.25
aF191.25
aF191.25
aF191.25
aF191.25
aF191.25
aF191.25
aF191.25
aF191.25
aF191.25
aF191.25
aF191.25
aF191.25
aF191.25
aF191.25
aF191.25
aF191.25
aF191.25
aF191.25
aF191.25
aF191.25
aF191.25
aF191.25
aF191.25
aF191.25
aF191.25
aF191.25
aF191.25
aF191.25
aF191.25
aF191.25
aF191.25
aF191.25
aF191.25
aF191.25
aF191.25
aF191.25
aF191.25
aF191.25
aF191.25
aF191.25
aF191.25
aF191.25
aF191.25
aF191.25
aF191.25
aF191.25
aF191.25
aF191.25
aF191.25
aF191.25
aF191.25
aF191.25
aF191.25
aF191.25
aF191.25
aF191.25
aF191.25
aF191.25
aF191.25
aF191.25
aF191.25
aF191.25
aF191.25
aF191.25
aF191.25
aF191.25
aF191.25
aF191.25
aF191.25
aF191.25
aF191.25
aF191.25
aF191.25
aF191.25
aF191.25
aF191.25
aF191.25
aF191.25
aF191.25
aF191.25
aF191.25
aF191.25
aF191.25
aF191.25
aF191.25
aF191.25
aF191.25
aF191.25
aF191.25
aF191.25
aF191.25
aF191.25
aF191.25
aF191.25
aF191.25
aF191.25
aF191.25
aF191.25
aF191.25
aF191.25
aF191.25
aF191.25
aF191.25
aF191.25
aF191.25
aF191.25
aF191.25
aF191.25
aF191.25
aF191.25
aF191.25
aF191.25
aF191.25
aF191.25
aF191.25
aF191.25
aF191.25
aF191.25
aF191.25
aF191.25
aF191.25
aF191.25
aF191.25
aF191.25
aF191.25
aF191.25
aF191.25
aF191.25
aF191.25
aF191.25
aF191.25
aF191.25
aF191.25
aF191.25
aF191.25
aF191.25
aF191.25
aF191.25
aF191.25
aF191.25
aF191.25
aF191.25
aF191.25
aF191.25
aF191.25
aF191.25
aF191.25
aF191.25
aF191.25
aF191.25
aF191.25
aF191.25
aF191.25
aF191.25
aF191.25
aF191.25
aF191.25
aF191.25
aF191.25
aF191.25
aF191.25
aF191.25
aF191.25
aF191.25
aF191.25
aF191.25
aF191.25
aF191.25
aF191.25
aF191.25
aF191.25
aF191.25
aF191.25
aF191.25
aF191.25
aF191.25
aF191.25
aF191.25
aF191.25
aF191.25
aF191.25
aF191.25
aF191.25
aF191.25
aF191.25
aF191.25
aF191.25
aF191.25
aF191.25
aF191.25
aF191.25
aF191.25
aF191.25
aF191.25
aF191.25
aF191.25
aF191.25
aF191.25
aF191.25
aF191.25
aF191.25
aF191.25
aF191.25
aF191.25
aF191.25
aF191.25
aF191.25
aF191.25
aF191.25
aF191.25
aF191.25
aF191.25
aF191.25
aF191.25
aF191.25
aF191.25
aF191.25
aF191.25
aF191.25
aF191.25
aF191.25
aF191.25
aF191.25
aF191.25
aF191.25
aF191.25
aF191.25
aF191.25
aF191.25
aF191.25
aF191.25
aF191.25
aF191.25
aF191.25
aF191.25
aF191.25
aF191.25
aF191.25
aF191.25
aF191.25
aF191.25
aF191.25
aF191.25
aF191.25
aF191.25
aF191.25
aF191.25
aF191.25
aF191.25
aF191.25
aF191.25
aF191.25
aF191.25
aF191.25
aF191.25
aF191.25
aF191.25
aF191.25
aF191.25
aF191.25
aF191.25
aF191.25
aF191.25
aF191.25
aF191.25
aF191.25
aF191.25
aF191.25
aF191.25
aF191.25
aF191.25
aF191.25
aF191.25
aF191.25
aF191.25
aF191.25
aF191.25
aF191.25
aF191.25
aF191.25
aF191.25
aF191.25
aF191.25
aF191.25
aF191.25
aF191.25
aF191.25
aF191.25
aF191.25
aF191.25
aF191.25
aF191.25
aF191.25
aF191.25
aF191.25
aF191.25
aF191.25
aF191.25
aF191.25
aF191.25
aF191.25
aF191.25
aF191.25
aF191.25
aF191.25
aF191.25
aF191.25
aF191.25
aF191.25
aF191.25
aF191.25
aF191.25
aF191.25
aF191.25
aF191.25
aF191.25
aF191.25
aF191.25
aF191.25
aF191.25
aF191.25
aF191.25
aF191.25
aF191.25
aF191.25
aF191.25
aF191.25
aF191.25
aF191.25
aF191.25
aF191.25
aF191.25
aF191.25
aF191.25
aF191.25
aF191.25
aF191.25
aF191.25
aF191.25
aF191.25
aF191.25
aF191.25
aF191.25
aF191.25
aF191.25
aF191.25
aF191.25
aF191.25
aF191.25
aF191.25
aF191.25
aF191.25
aF191.25
aF191.25
aF191.25
aF191.25
aF191.25
aF191.25
aF191.25
aF191.25
aF191.25
aF191.25
aF191.25
aF191.25
aF191.25
aF191.25
aF191.25
aF191.25
aF191.25
aF191.25
aF191.25
aF191.25
aF191.25
aF191.25
aF191.25
aF191.25
aF191.25
aF191.25
aF191.25
aF191.25
aF191.25
aF191.25
aF191.25
aF191.25
aF191.25
aF0
aF0
aF0
aF0
aF0
aF0
aF0
aF0
aF0
aF0
aF0
aF0
aF0
aF0
aF0
aF0
aF0
aF0
aF0
aF0
aF0
aF0
aF0
aF0
aF0
aF0
aF0
aF0
aF0
aF0
aF0
aF0
aF0
aF0
aF0
aF0
aF0
aF0
aF0
aF0
aF0
aF0
aF0
aF0
aF0
aF0
aF0
aF0
aF0
aF0
aF0
aF0
aF0
aF0
aF0
aF0
aF0
aF0
aF0
aF0
aF0
aF0
aF0
aF0
aF0
aF0
aF0
aF0
aF0
aF0
aF0
aF0
aF0
aF0
aF0
aF0
aF0
aF0
aF0
aF0
aF0
aF0
aF0
aF0
aF0
aF0
aF0
aF0
aF0
aF0
aF0
aF0
aF0
aF0
aF0
aF0
aF0
aF0
aF0
aF0
aF0
aF0
aF0
aF0
aF0
aF0
aF0
aF0
aF0
aF0
aF0
aF0
aF0
aF0
aF0
aF0
aF0
aF0
aF0
aF0
aF0
aF0
aF0
aF0
aF0
aF0
aF0
aF0
aF0
aF0
aF0
aF0
aF0
aF0
aF0
aF0
aF0
aF0
aF0
aF0
aF0
aF0
aF0
aF0
aF0
aF0
aF0
aF0
aF0
aF0
aF0
aF0
aF0
aF0
aF0
aF0
aF0
aF0
aF0
aF0
aF0
aF0
aF0
aF0
aF0
aF0
aF0
aF0
aF0
aF0
aF0
aF0
aF0
aF0
aF0
aF0
aF0
aF0
aF0
aF0
aF0
aF0
aF0
aF0
aF0
aF0
aF0
aF0
aF0
aF0
aF0
aF0
aF0
aF0
aF0
aF0
aF0
aF0
aF0
aF0
aF0
aF0
aF0
aF0
aF0
aF0
aF0
aF0
aF0
aF0
aF0
aF0
aF0
aF0
aF0
aF0
aF0
aF0
aF0
aF0
aF0
aF0
aF0
aF0
aF0
aF0
aF0
aF0
aF0
aF0
aF0
aF0
aF0
aF0
aF0
aF0
aF0
aF0
aF0
aF0
aF0
aF0
aF0
aF0
aF0
aF0
aF0
aF0
aF0
aF0
aF0
aF0
aF0
aF0
aF0
aF0
aF0
aF0
aF0
aF0
aF0
aF0
aF0
aF0
aF0
aF0
aF0
aF0
aF0
aF0
aF0
aF0
aF0
aF0
aF0
aF0
aF0
aF0
aF0
aF0
aF0
aF0
aF0
aF0
aF0
aF0
aF0
aF0
aF0
aF0
aF0
aF0
aF0
aF0
aF0
aF0
aF0
aF0
aF0
aF0
aF0
aF0
aF0
aF0
aF0
aF0
aF0
aF0
aF0
aF0
aF0
aF0
aF0
aF0
aF0
aF0
aF0
aF0
aF0
aF0
aF0
aF0
aF0
aF0
aF0
aF0
aF0
aF0
aF0
aF0
aF0
aF0
aF0
aF0
aF0
aF0
aF0
aF0
aF0
aF0
aF0
aF0
aF0
aF0
aF0
aF0
aF0
aF0
aF0
aF0
aF0
aF0
aF0
aF0
aF0
aF0
aF0
aF0
aF0
aF0
aF0
aF0
aF0
aF0
aF0
aF0
aF0
aF0
aF0
aF0
aF0
aF0
aF0
aF0
aF0
aF0
aF0
aF0
aF0
aF0
aF0
aF0
aF0
aF0
aF0
aF0
aF0
aF0
aF0
aF0
aF0
aF0
aF0
aF0
aF0
aF0
aF0
aF0
aF0
aF0
aF0
aF0
aF0
aF0
aF0
aF0
aF0
aF0
aF0
aF0
aF0
aF0
aF0
aF0
aF0
aF0
aF0
aF0
aF0
aF0
aF0
aF0
aF0
aF0
aF0
aF0
aF0
aF0
aF0
aF0
aF0
aF0
aF0
aF0
aF0
aF0
aF0
aF0
aF0
aF0
aF0
aF0
aF0
aF0
aF0
aF0
aF0
aF0
aF0
aF0
aF0
aF0
aF0
aF0
aF0
aF0
aF0
aF0
aF0
aF0
aF0
aF0
aF0
aF0
aF0
aF0
aF0
aF0
aF0
aF0
aF0
aF0
aF0
aF0
aF0
aF0
aF0
aF0
aF0
aF0
aF0
aF0
aF0
aF0
aF0
aF0
aF0
aF0
aF0
aF0
aF0
aF0
aF0
aF0
aF0
aF0
aF0
aF0
aF0
aF0
aF0
aF0
aF0
aF0
aF0
aF0
aF0
aF0
aF0
aF0
aF0
aF0
aF0
aF0
aF0
aF0
aF0
aF0
aF0
aF0
aF0
aF0
aF0
aF0
aF0
aF0
aF0
aF0
aF0
aF0
aF0
aF0
aF0
aF0
aF0
aF0
aF0
aF0
aF0
aF0
aF0
aF0
aF0
aF0
aF0
aF0
aF0
aF0
aF0
aF0
aF0
aF0
aF0
aF0
aF0
aF0
aF0
aF0
aF0
aF0
aF0
aF0
aF0
aF0
aF0
aF0
aF0
aF0
aF0
aF0
aF0
aF0
aF0
aF0
aF0
aF0
aF0
aF0
aF0
aF0
aF0
aF0
aF0
aF0
aF0
aF0
aF0
aF0
aF0
aF0
aF0
aF0
aF0
aF0
aF0
aF0
aF0
aF0
aF0
aF0
aF0
aF0
aF0
aF0
aF0
aF0
aF0
aF0
aF0
aF0
aF0
aF0
aF0
aF0
aF0
aF0
aF0
aF0
aF0
aF0
aF0
aF0
aF0
aF0
aF0
aF0
aF0
aF0
aF0
aF0
aF0
aF0
aF0
aF0
aF0
aF0
aF0
aF0
aF0
aF0
aF0
aF0
aF0
aF0
aF0
aF0
aF0
aF0
aF0
aF0
aF0
aF0
aF0
aF0
aF0
aF0
aF0
aF0
aF0
aF0
aF0
aF0
aF0
aF0
aF0
aF0
aF0
aF0
aF0
aF0
aF0
aF0
aF0
aF0
aF0
aF0
aF0
aF0
aF0
aF0
aF0
aF0
aF0
aF0
aF0
aF0
aF0
aF0
aF0
aF0
aF0
aF0
aF0
aF0
aF0
aF0
aF0
aF0
aF0
aF0
aF0
aF0
aF0
aF0
aF0
aF0
aF0
aF0
aF0
aF0
aF0
aF0
aF0
aF0
aF0
aF0
aF0
aF0
aF0
aF0
aF0
aF0
aF0
aF0
aF0
aF0
aF0
aF0
aF0
aF0
aF0
aF0
aF0
aF0
aF0
aF0
aF0
aF0
aF0
aF0
aF0
aF0
aF0
aF0
aF0
aF0
aF0
aF0
aF0
aF0
aF0
aF0
aF0
aF0
aF0
aF0
aF0
aF0
aF0
aF0
aF0
aF0
aF0
aF0
aF0
aF0
aF0
aF0
aF0
aF0
aF0
aF0
aF0
aF0
aF0
aF0
aF0
aF0
aF0
aF0
aF0
aF0
aF0
aF0
aF0
aF0
aF0
aF0
aF0
aF0
aF0
aF0
aF0
aF0
aF0
aF0
aF0
aF0
aF0
aF0
aF0
aF0
aF0
aF0
aF0
aF0
aF0
aF0
aF0
aF0
aF0
aF0
aF0
aF0
aF0
aF0
aF0
aF0
aF0
aF0
aF0
aF0
aF0
aF0
aF0
aF0
aF0
aF0
aF0
aF0
aF0
aF0
aF0
aF0
aF0
aF0
aF0
aF0
aF0
aF0
aF0
aF0
aF0
aF0
aF0
aF0
aF0
aF0
aF0
aF0
aF0
aF0
aF0
aF0
aF0
aF0
aF0
aF0
aF0
aF0
aF0
aF0
aF0
aF0
aF0
aF0
aF0
aF0
aF0
aF0
aF0
aF0
aF0
aF0
aF0
aF0
aF0
aF0
aF0
aF0
aF0
aF0
aF0
aF0
aF0
aF0
aF0
aF0
aF0
aF0
aF0
aF0
aF0
aF0
aF0
aF0
aF0
aF0
aF0
aF0
aF0
aF0
aF0
aF0
aF0
aF0
aF0
aF0
aF0
aF0
aF0
aF0
aF0
aF0
aF0
aF0
aF0
aF0
aF0
aF0
aF0
aF0
aF0
aF0
aF0
aF0
aF0
aF0
aF0
aF0
aF0
aF0
aF0
aF0
aF0
aF0
aF0
aF0
aF0
aF0
aF0
aF0
aF0
aF0
aF0
aF0
aF0
aF0
aF0
aF0
aF0
aF0
aF0
aF0
aF0
aF0
aF0
aF0
aF0
aF0
aF0
aF0
aF0
aF0
aF0
aF0
aF0
aF0
aF0
aF0
aF0
aF0
aF0
aF0
aF0
aF0
aF0
aF0
aF0
aF0
aF0
aF0
aF0
aF0
aF0
aF0
aF0
aF0
aF0
aF0
aF0
aF0
aF0
aF0
aF0
aF0
asS't_off'
p13
F1100
s.