(dp1
S'T_amb'
p2
cnumpy.core.multiarray
scalar
p3
(cnumpy
dtype
p4
(S'f8'
I0
I1
tRp5
(I3
S'<'
NNNI-1
I-1
I0
tbS'\\\x1e9;\xb1\xd55@'
tRp6
sS't_delay'
p7
g3
(g5
S'\xca\x048bYg3@'
tRp8
sS'ctl_coef'
p9
(g3
(g5
S'\r\xcd\xdc\xe3\xd4P\xf9\xbe'
tRp10
g3
(g5
S'y\x95\xbb\xab\\\xd9\x84?'
tRp11
tp12
sS'temp_coef'
p13
g3
(g5
S'\xfeafvd\xaet?'
tRp14
s.